(dp1
S''
I0
sS'sju18'
p2
I1094
sS'coach'
p3
I236
sS'knowyourpolicedepartment'
p4
I653
sS'santafe'
p5
I1051
sS'theblacklist'
p6
I1188
sS'grassroots'
p7
I474
sS'dance'
p8
I277
sS'auc18'
p9
I98
sS'nervedjs'
p10
I809
sS'nato'
p11
I800
sS'olle_jeffry'
p12
I883
sS'luisito2402'
p13
I708
sS'infographic'
p14
I565
sS'iluvrap'
p15
I551
sS'ga'
p16
I444
sS'dcrs2014'
p17
I288
sS'judgement'
p18
I619
sS'follow'
p19
I412
sS'edequity'
p20
I335
sS'88dc'
p21
I13
sS'theydidthistothemselves'
p22
I1203
sS'occupyhq'
p23
I869
sS'aftermomentvideo'
p24
I33
sS'fuckthepolice'
p25
I439
sS'c4news'
p26
I184
sS'jobsila'
p27
I610
sS'ivanberroa'
p28
I596
sS'retweetthat'
p29
I1020
sS'tma'
p30
I1215
sS'paris'
p31
I910
sS'tt'
p32
I1238
sS'possecomitatus'
p33
I948
sS'civildisobedience'
p34
I225
sS'sanantonio'
p35
I1048
sS'happeningnow'
p36
I497
sS'socialshakeup'
p37
I1106
sS'sorrynotsorry'
p38
I1111
sS'furgeson'
p39
I440
sS'tucsontoday'
p40
I1240
sS'asa14'
p41
I89
sS'nwtfire'
p42
I856
sS'dartmouth'
p43
I284
sS'fergusonshotting'
p44
I393
sS'sgp'
p45
I1071
sS'reachin'
p46
I999
sS'byp100'
p47
I181
sS'brown'
p48
I167
sS'honorsociety'
p49
I519
sS'freethegranny'
p50
I433
sS'wbai'
p51
I1296
sS'shtfjournal'
p52
I1086
sS'smh'
p53
I1101
sS'rednationrising'
p54
I1005
sS'abuseofpower'
p55
I19
sS'cnn'
p56
I232
sS'thewaterisnotclean'
p57
I1198
sS'fightfor15'
p58
I400
sS'facebook'
p59
I366
sS'lrt'
p60
I706
sS'anonymous'
p61
I71
sS'freedomofspeech'
p62
I424
sS'gezi'
p63
I461
sS'difference'
p64
I305
sS'trill'
p65
I1234
sS'scottolson'
p66
I1059
sS'aggiepride'
p67
I34
sS'oppressionliveson'
p68
I893
sS'ccot'
p69
I197
sS'iftheygunnedmedown'
p70
I546
sS'waronwhites'
p71
I1292
sS'die'
p72
I304
sS'justicefordonlemon'
p73
I628
sS'befree'
p74
I125
sS'michael'
p75
I735
sS'gun'
p76
I481
sS'gop'
p77
I472
sS'gettyimages'
p78
I459
sS'protestispatriotic'
p79
I969
sS'race'
p80
I981
sS'hbcu'
p81
I501
sS'mlk'
p82
I760
sS'fergusonshooting'
p83
I392
sS'ddhh'
p84
I289
sS'theydontreallycareaboutus'
p85
I1204
sS'godforgiveswedont'
p86
I467
sS'ispeakoutbecause'
p87
I588
sS'newzealand'
p88
I823
sS'cashinin'
p89
I190
sS'tellthetruth'
p90
I1180
sS'rainbowuprising'
p91
I993
sS'stopracialprofiling'
p92
I1140
sS'jurnos'
p93
I622
sS'mygod'
p94
I792
sS'lnyhbt'
p95
I691
sS'wsbtv'
p96
I1334
sS'ucwradio'
p97
I1251
sS'darrenwison'
p98
I283
sS'design'
p99
I297
sS'theworldiswatching'
p100
I1202
sS'video'
p101
I1281
sS'humantrafficking'
p102
I531
sS'assaultonofficer'
p103
I90
sS'cfr'
p104
I203
sS'gm'
p105
I464
sS'news19'
p106
I817
sS'freeawkwardduck'
p107
I422
sS'jesus'
p108
I605
sS'afghanistan'
p109
I30
sS'sschat'
p110
I1121
sS'abc'
p111
I17
sS'abd'
p112
I18
sS'constitution'
p113
I248
sS'peacefulprotest'
p114
I916
sS'chicago'
p115
I210
sS'stlouiscountypolice'
p116
I1131
sS'righttorecord'
p117
I1026
sS'11alive'
p118
I1
sS'nwo'
p119
I855
sS'trainisneverlate'
p120
I1225
sS'iaedchat'
p121
I534
sS'usenet'
p122
I1271
sS'prt'
p123
I972
sS'bds'
p124
I121
sS'worldnews'
p125
I1329
sS'new'
p126
I813
sS'guns'
p127
I484
sS'amagi'
p128
I51
sS'mikebrownnola'
p129
I745
sS'conversationmobile'
p130
I249
sS'michaelcantknow'
p131
I739
sS'christian'
p132
I216
sS'saverrepublic'
p133
I1053
sS'chamakoserioo'
p134
I204
sS'gg_rmc'
p135
I462
sS'newyork'
p136
I822
sS'guardian'
p137
I480
sS'freepalestine'
p138
I431
sS'theverge'
p139
I1197
sS'twisters'
p140
I1242
sS'wagner_kc'
p141
I1288
sS'healing'
p142
I505
sS'ksdk'
p143
I657
sS'gunit'
p144
I483
sS'communitypolcing'
p145
I244
sS'manoduraalcontrabando'
p146
I717
sS'iraq'
p147
I582
sS'respect'
p148
I1018
sS'b2b'
p149
I106
sS'change'
p150
I205
sS'topnews'
p151
I1219
sS'firstaid'
p152
I404
sS'nochange'
p153
I833
sS'cerd'
p154
I201
sS'kids'
p155
I646
sS'sanfrancisco'
p156
I1049
sS'yyyoooddduuurrrrtttyyyy'
p157
I1349
sS'payattention'
p158
I912
sS'elsipogtog'
p159
I343
sS'prayforferguson'
p160
I957
sS'audiobook'
p161
I99
sS'mtvhottest'
p162
I778
sS'fergusionfiasco'
p163
I378
sS'sju'
p164
I1093
sS'justice'
p165
I623
sS'yourlifematters'
p166
I1346
sS'prayersforferguson'
p167
I956
sS'u062du0645u0635'
p168
I1247
sS'ctl'
p169
I268
sS'military'
p170
I753
sS'inews9k'
p171
I563
sS'tribbits'
p172
I1231
sS'montreal'
p173
I768
sS'ugh'
p174
I1253
sS'universityofkentucky'
p175
I1266
sS'peopleberacist'
p176
I920
sS'stlstrong'
p177
I1133
sS'love'
p178
I704
sS'apple'
p179
I78
sS'egypt'
p180
I340
sS'1stamendment'
p181
I4
sS'app'
p182
I77
sS'preppertalk'
p183
I959
sS'reagan'
p184
I1000
sS'atlrally'
p185
I93
sS'everyonethoughtit'
p186
I359
sS'taylorswift'
p187
I1169
sS'allpolice'
p188
I45
sS'ecore'
p189
I333
sS'darrenwilsonshotmichaelbrown'
p190
I282
sS'zipemup'
p191
I1352
sS'crisis'
p192
I265
sS'sgf'
p193
I1070
sS'icelandicvolcano'
p194
I540
sS'internacional'
p195
I576
sS'raw'
p196
I997
sS'dailydefinition'
p197
I274
sS'omg'
p198
I884
sS'usa'
p199
I1270
sS'army'
p200
I84
sS'chi'
p201
I209
sS'fl3'
p202
I408
sS'live'
p203
I688
sS'idiots'
p204
I544
sS'fergusononfireusa'
p205
I386
sS'fergusontogaza'
p206
I396
sS'biggovernmentsucks'
p207
I135
sS'music'
p208
I787
sS'iphone'
p209
I581
sS'fixitjesus'
p210
I407
sS'spreadtheword'
p211
I1119
sS'negroes'
p212
I806
sS'nohope'
p213
I835
sS'today'
p214
I1216
sS'eashl'
p215
I328
sS'ripmikebrown'
p216
I1031
sS'israel'
p217
I589
sS'morehouse'
p218
I769
sS'journalists'
p219
I615
sS'riot'
p220
I1027
sS'policeyourself'
p221
I941
sS'stoppolicebrutality'
p222
I1138
sS'blackman'
p223
I147
sS'infosec'
p224
I566
sS'freehedy'
p225
I428
sS'justicestill'
p226
I636
sS'generationofracism'
p227
I454
sS'savageanimals'
p228
I1052
sS'whitesupremacy'
p229
I1319
sS'lord'
p230
I698
sS'robbing'
p231
I1036
sS'nypd'
p232
I859
sS'murica'
p233
I786
sS'teamdl'
p234
I1171
sS'animals'
p235
I69
sS'mb'
p236
I725
sS'hqconsulting'
p237
I526
sS'mo'
p238
I761
sS'noproblem'
p239
I843
sS'releasethetape'
p240
I1009
sS'mediablackout'
p241
I730
sS'uspoli'
p242
I1273
sS'freeolson'
p243
I430
sS'juniororteqa'
p244
I620
sS'obvious'
p245
I866
sS'subterfuge'
p246
I1154
sS'smear'
p247
I1099
sS'pdchief'
p248
I913
sS'thispicturesayssomuch'
p249
I1206
sS'natgat2014'
p250
I796
sS'blackyouthmatter'
p251
I153
sS'citizenwitnessing'
p252
I224
sS'history'
p253
I513
sS'kentstate'
p254
I645
sS'hip'
p255
I510
sS'stoparmingisrael'
p256
I1136
sS'estlouis'
p257
I357
sS'michaeldunn'
p258
I740
sS'bennett'
p259
I131
sS'riposcargrant'
p260
I1033
sS'lbgt'
p261
I672
sS'dickandballs'
p262
I303
sS'lafoto'
p263
I662
sS'q13fox'
p264
I978
sS'caution'
p265
I194
sS'edshow'
p266
I336
sS'wearelegion'
p267
I1298
sS'wow'
p268
I1331
sS'libertarian'
p269
I685
sS'policeofficer'
p270
I936
sS'wearemikebrown'
p271
I1299
sS'civilrights'
p272
I226
sS'yaf'
p273
I1341
sS'breaking'
p274
I160
sS'solidarity'
p275
I1108
sS'hbcus'
p276
I502
sS'shakeitoff'
p277
I1072
sS'united'
p278
I1263
sS'theneeds'
p279
I1195
sS'democracy'
p280
I295
sS'marchformikebrown'
p281
I718
sS'lamafiaverde'
p282
I663
sS'purpose'
p283
I977
sS'7news'
p284
I10
sS'seo'
p285
I1068
sS'american'
p286
I53
sS'presstvgaza'
p287
I961
sS'greenpregnancy'
p288
I475
sS'immune'
p289
I553
sS'hot'
p290
I522
sS'neveragain'
p291
I811
sS'equalaccess'
p292
I352
sS'lastweektonight'
p293
I667
sS'dc2mo'
p294
I287
sS'comedy'
p295
I241
sS'afp'
p296
I31
sS'photography'
p297
I925
sS'cubanfive'
p298
I271
sS'economy'
p299
I332
sS'androidgames'
p300
I63
sS'amerika'
p301
I56
sS'jp86'
p302
I617
sS'freegaza'
p303
I427
sS'freepress'
p304
I432
sS'bejust'
p305
I127
sS'thatawesomemoment'
p306
I1186
sS'morevideomoreeyes'
p307
I772
sS'struggleofbeingablackman'
p308
I1152
sS'nannystate'
p309
I795
sS'krbe'
p310
I656
sS'fascism'
p311
I373
sS'alllove'
p312
I44
sS'iammikebrown'
p313
I537
sS'policestateusa'
p314
I939
sS'ff'
p315
I398
sS'crimebutnotime'
p316
I264
sS'ump'
p317
I1257
sS'heroes'
p318
I508
sS'authentic'
p319
I101
sS'infowars'
p320
I567
sS'fn'
p321
I410
sS'smearcampaign'
p322
I1100
sS'circlingthewagons'
p323
I221
sS'ncat18'
p324
I803
sS'inners'
p325
I572
sS'uncg'
p326
I1260
sS'avantilprossimo'
p327
I103
sS'elpjisdope'
p328
I342
sS'kxly'
p329
I658
sS'luiis_3x'
p330
I707
sS'thewire'
p331
I1201
sS'obama'
p332
I864
sS'bordercrisis'
p333
I156
sS'dmargeniis_x3'
p334
I313
sS'makesnosense'
p335
I715
sS'srilanka'
p336
I1120
sS'sc'
p337
I1055
sS'notallwomen'
p338
I846
sS'truthjuice'
p339
I1237
sS'order'
p340
I896
sS'murderfree'
p341
I785
sS'angelchallenge'
p342
I67
sS'nmos14atl'
p343
I832
sS'blackpussies'
p344
I151
sS'idiocracy'
p345
I543
sS'ericholder'
p346
I355
sS'rt'
p347
I1041
sS'nopeace'
p348
I841
sS'reporters'
p349
I1011
sS'bedstuynmos'
p350
I123
sS'pantsupdontloot'
p351
I908
sS'gazans'
p352
I451
sS'itsbiggerthanyo'
p353
I594
sS'stopplantingideas'
p354
I1137
sS'decaturga'
p355
I290
sS'strongarm'
p356
I1149
sS'chrismatthews'
p357
I215
sS'scottolsen'
p358
I1058
sS'justicefortrayvon'
p359
I633
sS'japan'
p360
I600
sS'anoncorpwatch'
p361
I70
sS'policethepolice'
p362
I940
sS'justwondering'
p363
I641
sS'neilyoung'
p364
I807
sS'djs'
p365
I311
sS'fergusonpd'
p366
I387
sS'police'
p367
I931
sS'shoplifting'
p368
I1082
sS'la'
p369
I660
sS'misspelled'
p370
I758
sS'interesting'
p371
I575
sS'byu'
p372
I182
sS'beyonce'
p373
I133
sS'plantation'
p374
I929
sS'changemustcome'
p375
I206
sS'policestate'
p376
I938
sS'wral'
p377
I1332
sS'standwithferguson'
p378
I1123
sS'justiceformichaelbrown'
p379
I630
sS'themoreyouknow'
p380
I1193
sS'msnbc'
p381
I776
sS'trayvon'
p382
I1228
sS'naacp'
p383
I793
sS'ahhhshit'
p384
I38
sS'goodmorning'
p385
I471
sS'1stam'
p386
I3
sS'good'
p387
I470
sS'finance'
p388
I402
sS'food'
p389
I413
sS'breakingnews'
p390
I161
sS'captainjohnson'
p391
I187
sS'spirituality'
p392
I1118
sS'unarmed'
p393
I1258
sS'stopracebating'
p394
I1139
sS'okc'
p395
I881
sS'newsflash'
p396
I818
sS'ferguson'
p397
I379
sS'icymi'
p398
I541
sS'nyc'
p399
I857
sS'takemehome'
p400
I1166
sS'armedrobbery'
p401
I83
sS'fergusonas'
p402
I380
sS'bullshit'
p403
I175
sS'politicalprisoners'
p404
I945
sS'justiceformike'
p405
I631
sS'johnle'
p406
I612
sS'catholicstl'
p407
I192
sS'equality'
p408
I353
sS'lies'
p409
I686
sS'wsjaudio'
p410
I1337
sS'foxracistmedia'
p411
I418
sS'afroanonymous'
p412
I32
sS'jutsticeforericgarner'
p413
I642
sS'arrested'
p414
I86
sS'race101'
p415
I982
sS'detroit'
p416
I300
sS'obamaparrotslies'
p417
I865
sS'inequality'
p418
I562
sS'wtf'
p419
I1338
sS'2a'
p420
I7
sS'fergusoncoversup'
p421
I382
sS'mufc'
p422
I780
sS'opps'
p423
I894
sS'headfake'
p424
I504
sS'militarization'
p425
I750
sS'violenceincites'
p426
I1284
sS'bodycams'
p427
I155
sS'dageneralquotes'
p428
I272
sS'gazaunderattack'
p429
I452
sS'kellythomas'
p430
I644
sS'stepdown'
p431
I1128
sS'fabuloxmag'
p432
I365
sS'outfront'
p433
I900
sS'downtownatl'
p434
I324
sS'hls'
p435
I514
sS'indianapolis'
p436
I557
sS'bringbackourgirls'
p437
I163
sS'letsalldobetter'
p438
I679
sS'badcops'
p439
I108
sS'prochoice'
p440
I965
sS'okay'
p441
I880
sS'nopeacenojustice'
p442
I842
sS'inbbound'
p443
I556
sS'sueleymanseba'
p444
I1155
sS'insurance'
p445
I574
sS'jacksonville'
p446
I597
sS'wftv'
p447
I1310
sS'canada'
p448
I185
sS'ftp'
p449
I436
sS'shame'
p450
I1073
sS'laprotest'
p451
I666
sS'departmentofdefense'
p452
I296
sS'thewholeworldiswatching'
p453
I1200
sS'entertainment'
p454
I351
sS'god'
p455
I465
sS'irony'
p456
I584
sS'lawlesscretins'
p457
I671
sS'thelead'
p458
I1192
sS'truth'
p459
I1236
sS'bahrainstyle'
p460
I112
sS'racisminamerica'
p461
I988
sS'smm'
p462
I1102
sS'regulatepolice'
p463
I1006
sS'arkansas'
p464
I81
sS'lafalacia_'
p465
I661
sS'rap'
p466
I995
sS'internet'
p467
I578
sS'militarizationofpolice'
p468
I751
sS'geld'
p469
I453
sS'venezuela'
p470
I1276
sS'gettyphotographer'
p471
I460
sS'sanjose'
p472
I1050
sS'policing101'
p473
I942
sS'notonemore'
p474
I847
sS'sunoviaaquxed'
p475
I1157
sS'abbott'
p476
I16
sS'exodus'
p477
I362
sS'liars'
p478
I682
sS'tcot'
p479
I1170
sS'nbcnews'
p480
I801
sS'michealbrown'
p481
I742
sS'fiddlingwhileromeburns'
p482
I399
sS'ocra'
p483
I872
sS'whokilledmikebrown'
p484
I1320
sS'ericgarner'
p485
I354
sS'repubblicaditavecchio'
p486
I1014
sS'sholedont'
p487
I1079
sS'opferguson'
p488
I891
sS'blackpanthers'
p489
I149
sS'policereform'
p490
I937
sS'nytimes'
p491
I860
sS'michaelbrownshooting'
p492
I738
sS'soundcloud'
p493
I1114
sS'tribunelibre'
p494
I1232
sS'comrade'
p495
I245
sS'usrevolution'
p496
I1274
sS'morningjoe'
p497
I773
sS'mogov'
p498
I762
sS'signalboost'
p499
I1087
sS'sustainability'
p500
I1161
sS'sobeautiful'
p501
I1104
sS'yup'
p502
I1348
sS'atl'
p503
I91
sS'mumiaab'
p504
I782
sS'bundyranch'
p505
I177
sS'classwar'
p506
I227
sS'diaspora'
p507
I302
sS'49ers'
p508
I9
sS'dogecoin'
p509
I316
sS'1stamendmentviolated'
p510
I5
sS'syria'
p511
I1164
sS'gls14'
p512
I463
sS'heisnotdispoable'
p513
I507
sS'spelman18'
p514
I1117
sS'shinyobject'
p515
I1077
sS'atx'
p516
I97
sS'bebolapara'
p517
I122
sS'istandwithferguson'
p518
I591
sS'whurnews'
p519
I1321
sS'fox25'
p520
I416
sS'cltv'
p521
I230
sS'policeagression'
p522
I932
sS'stoptheviolence'
p523
I1143
sS'whatdaell'
p524
I1311
sS'threatening'
p525
I1207
sS'sosad'
p526
I1112
sS'science'
p527
I1056
sS'shameful'
p528
I1074
sS'fergusonriot'
p529
I390
sS'celeb'
p530
I199
sS'endpolicebrutality'
p531
I349
sS'seinfeld'
p532
I1064
sS'nhv'
p533
I826
sS'americans'
p534
I54
sS'forfuturereference'
p535
I414
sS'political'
p536
I943
sS'homeforthebrave'
p537
I518
sS'cogic'
p538
I237
sS'local4'
p539
I692
sS'alllivesmatter'
p540
I43
sS'firsttake'
p541
I405
sS'jewsforpalestine'
p542
I606
sS'rex84'
p543
I1022
sS'sayfie'
p544
I1054
sS'mikebrown'
p545
I744
sS'balarts'
p546
I114
sS'fuckery'
p547
I437
sS'occupy'
p548
I867
sS'blackbarmitzvah'
p549
I142
sS'hoodiesupmusicloud'
p550
I520
sS'shooting'
p551
I1080
sS'bitcoin'
p552
I139
sS'justicformikebrown'
p553
I637
sS'1a'
p554
I2
sS'justlivingtheirregularlife'
p555
I639
sS'edchat'
p556
I334
sS'socialmedia'
p557
I1105
sS'military_surplus'
p558
I754
sS'benjamincrump'
p559
I130
sS'istillbelievegod'
p560
I593
sS'nationalguard'
p561
I799
sS'oip'
p562
I878
sS'palestina'
p563
I905
sS'lapd'
p564
I665
sS'priorities'
p565
I963
sS'apaop'
p566
I76
sS'a'
I14
sS'murder'
p567
I784
sS'handsupmemphis'
p568
I492
sS'greta'
p569
I476
sS'ogt'
p570
I876
sS'263chat'
p571
I6
sS'anacondavidwednesdayonvevo'
p572
I59
sS'noprofessionalism'
p573
I844
sS'fergusontodc'
p574
I395
sS'ipadg'
p575
I580
sS'tfb'
p576
I1181
sS'freemanbosley'
p577
I429
sS'fergusonlive'
p578
I384
sS'livestream'
p579
I690
sS'howarduniversity'
p580
I524
sS'streetjustice'
p581
I1145
sS'justthefacts'
p582
I640
sS'udi'
p583
I1252
sS'holder'
p584
I516
sS'mybrotherskeeper'
p585
I790
sS'blackonblack'
p586
I148
sS'godblessamerica'
p587
I466
sS'sonsandbrothers'
p588
I1110
sS'frangelgraph'
p589
I420
sS'radiowisdom'
p590
I992
sS'stl'
p591
I1129
sS'fergusontapes'
p592
I394
sS'coward'
p593
I259
sS'daniel_zabala02'
p594
I278
sS'nowplaying'
p595
I849
sS'aztech'
p596
I105
sS'illegals'
p597
I550
sS'blackandwhitecookie'
p598
I141
sS'netneutrality'
p599
I810
sS'democat'
p600
I294
sS'judgedredd'
p601
I618
sS'stayinformed'
p602
I1125
sS'kindle'
p603
I649
sS'marines'
p604
I720
sS'nycpd'
p605
I858
sS'russia'
p606
I1043
sS'policechief'
p607
I934
sS'firsttimeforeverything'
p608
I406
sS'benghazi'
p609
I129
sS'archcitydefenders'
p610
I80
sS'lulz'
p611
I710
sS'allblackmen'
p612
I42
sS'cnnnewsroom'
p613
I235
sS'boston'
p614
I157
sS'puebla'
p615
I975
sS'marijuana'
p616
I719
sS'raymiifernandezznot'
p617
I998
sS'sad'
p618
I1045
sS'beingblack'
p619
I126
sS'fail'
p620
I371
sS'crisisinferguson'
p621
I266
sS'sundown'
p622
I1156
sS'cnetasia'
p623
I231
sS'notallcops'
p624
I845
sS'salingfollow'
p625
I1047
sS'freedomofthepress'
p626
I425
sS'vibetownhall'
p627
I1279
sS'ikybrownus'
p628
I549
sS'andydiiaz1'
p629
I64
sS'copsandtheklangohandinhand'
p630
I252
sS'nederland'
p631
I805
sS'dallas'
p632
I276
sS'smalltownvalues'
p633
I1096
sS'inked'
p634
I570
sS'crazyworld'
p635
I262
sS'teargas'
p636
I1175
sS'copskillkids'
p637
I253
sS'foxforthesheeple'
p638
I417
sS'occupyferguson'
p639
I868
sS'realconcerns'
p640
I1002
sS'justlive'
p641
I638
sS'vebirguengelecek'
p642
I1275
sS'warzone'
p643
I1293
sS'online'
p644
I886
sS'efc'
p645
I339
sS'actualidadrt'
p646
I28
sS'idwp'
p647
I545
sS'handsup'
p648
I489
sS'politicsnation'
p649
I947
sS'stlouiswegotyo'
p650
I1132
sS'tonight'
p651
I1218
sS'bisonpride'
p652
I138
sS'missourah'
p653
I756
sS'thatawkwardmoment'
p654
I1187
sS'trndnl'
p655
I1235
sS'sociology'
p656
I1107
sS'blackgods'
p657
I143
sS'reprojustice'
p658
I1013
sS'parenting'
p659
I909
sS'brooklyn'
p660
I166
sS'indictdarrenwilson'
p661
I558
sS'nytomo'
p662
I861
sS'thename'
p663
I1194
sS'ezellford'
p664
I364
sS'barbiojm'
p665
I118
sS'policechiefthomasjackson'
p666
I935
sS'bsg'
p667
I171
sS'autopsy'
p668
I102
sS'uk'
p669
I1254
sS'longwalk'
p670
I694
sS'doj'
p671
I317
sS'hypocrite'
p672
I532
sS'exoutsideagitators'
p673
I363
sS'tytlive'
p674
I1245
sS'strongarmedrobbery'
p675
I1150
sS'mediabias'
p676
I729
sS'opaque'
p677
I888
sS'indy'
p678
I559
sS'sf'
p679
I1069
sS'pinkpantherparty'
p680
I926
sS'nocompromise'
p681
I834
sS'tech'
p682
I1177
sS'tpp'
p683
I1223
sS'armedchairdetectives'
p684
I82
sS'xavier'
p685
I1340
sS'ky'
p686
I659
sS'boy_swag'
p687
I158
sS'strelkov'
p688
I1146
sS'attacking'
p689
I94
sS'fact'
p690
I368
sS'mtpol'
p691
I777
sS'actualidad'
p692
I27
sS'thisisactivism'
p693
I1205
sS'irs'
p694
I585
sS'shot'
p695
I1083
sS'michaelbrown'
p696
I736
sS'inm'
p697
I571
sS'whereisthelove'
p698
I1313
sS'partest'
p699
I911
sS'cpcueropornoqrafico'
p700
I260
sS'crookedpigs'
p701
I267
sS'gunsense'
p702
I485
sS'sisterpatriots'
p703
I1091
sS'executed'
p704
I361
sS'famiilypretty'
p705
I372
sS'jasonbentley'
p706
I601
sS'ripmichaelbrown'
p707
I1030
sS'justiceforall'
p708
I627
sS'poilce'
p709
I930
sS'whitehouse'
p710
I1314
sS'policebrutality'
p711
I933
sS'reblop'
p712
I1004
sS'nmos14'
p713
I831
sS'ipad'
p714
I579
sS'jax'
p715
I602
sS'dorianjohnson'
p716
I321
sS'activistworldnewsnow'
p717
I26
sS'lordhavemercy'
p718
I699
sS'theguardian'
p719
I1191
sS'gabbarism'
p720
I445
sS'niggering'
p721
I828
sS'stateofemergency'
p722
I1124
sS'thepanel'
p723
I1196
sS'crime'
p724
I263
sS'fb'
p725
I375
sS'shitobamaprobablysays'
p726
I1078
sS'bush'
p727
I178
sS'black'
p728
I140
sS'hiphopsummit'
p729
I512
sS'discriminacixf3nracial'
p730
I307
sS'rushtojudgement'
p731
I1042
sS'lastwords'
p732
I668
sS'fuckinmaury'
p733
I438
sS'hardball'
p734
I498
sS'chiefjackson'
p735
I211
sS'nhpolitics'
p736
I825
sS'bahrain'
p737
I111
sS'boycottisrael'
p738
I159
sS'neverforget'
p739
I812
sS'silenceislouderthanscreams'
p740
I1089
sS'cuba'
p741
I270
sS'mugshots'
p742
I781
sS'michigan'
p743
I743
sS'stop'
p744
I1134
sS'dc'
p745
I286
sS'andeverythingelse'
p746
I61
sS'ebola'
p747
I329
sS'naacpyc'
p748
I794
sS'courage'
p749
I257
sS'buildpeace'
p750
I174
sS'blacklivesmatter'
p751
I146
sS'stoprush'
p752
I1141
sS'newsonenow'
p753
I821
sS'answers1stquestioninthread'
p754
I72
sS'trayvonmartin'
p755
I1229
sS'chips'
p756
I213
sS'looting'
p757
I697
sS'endhate'
p758
I346
sS'bucketchallenge'
p759
I173
sS'lhhatl'
p760
I680
sS'militantpolice'
p761
I749
sS'kkk'
p762
I650
sS'real_linoe'
p763
I1001
sS'handsupla'
p764
I491
sS'eeuu'
p765
I338
sS'selfdefense'
p766
I1065
sS'chiefofpigs'
p767
I212
sS'laparaladamonosotro'
p768
I664
sS'peoplepower'
p769
I922
sS'release'
p770
I1008
sS'ismellacoverup'
p771
I587
sS'weneedthatverdict'
p772
I1306
sS'lavrov'
p773
I670
sS'fergusonlivestream'
p774
I385
sS'brianmundial'
p775
I162
sS'bai'
p776
I113
sS'art'
p777
I88
sS'victim'
p778
I1280
sS'btr'
p779
I172
sS'martinniemxf6ller'
p780
I724
sS'aggressor'
p781
I36
sS'national'
p782
I798
sS'byanymeansnecessary'
p783
I180
sS'resist'
p784
I1017
sS'hoovesup'
p785
I521
sS'college'
p786
I239
sS'us'
p787
I1268
sS'stribpol'
p788
I1147
sS'corrupt'
p789
I255
sS'hedyepstein'
p790
I506
sS'news'
p791
I816
sS'knowyourrights'
p792
I654
sS'cold'
p793
I238
sS'capitalista'
p794
I186
sS'itsbiggerthanyou'
p795
I595
sS'handsupdontshoot'
p796
I490
sS'darrenwilsonk'
p797
I281
sS'brokenwindows'
p798
I165
sS'pressfreedom'
p799
I960
sS'destiny'
p800
I299
sS'maddow'
p801
I713
sS'dontgiveup'
p802
I318
sS'mine'
p803
I755
sS'icantbreathe'
p804
I538
sS'gretawire'
p805
I477
sS'dagr8fm'
p806
I273
sS'dashcams'
p807
I285
sS'kmov'
p808
I651
sS'peaceinferguson'
p809
I917
sS'injustice'
p810
I569
sS'politicalcraps'
p811
I944
sS'brynmawr'
p812
I169
sS'trews'
p813
I1230
sS'cesarina_x3'
p814
I202
sS'peruenlanoticia'
p815
I924
sS'crazycops'
p816
I261
sS'we'
p817
I1297
sS'losangeles'
p818
I700
sS'jobs'
p819
I609
sS'israelunderfire'
p820
I590
sS'jailkillercops'
p821
I598
sS'fergusun'
p822
I397
sS'stlouis'
p823
I1130
sS'wewantthetruth'
p824
I1309
sS'facepalm'
p825
I367
sS'growup'
p826
I478
sS'noonecares'
p827
I840
sS'810style'
p828
I12
sS'riptrayvonmartin'
p829
I1034
sS'ronjohnson'
p830
I1038
sS'embarrassment'
p831
I344
sS'unarmedblackteen'
p832
I1259
sS'gazachildren'
p833
I450
sS'antonsolamente'
p834
I74
sS'blastem'
p835
I154
sS'repost'
p836
I1012
sS'darrenwils'
p837
I279
sS'flexin'
p838
I409
sS'cities'
p839
I222
sS'mundinews'
p840
I783
sS'safety4media'
p841
I1046
sS'cop'
p842
I250
sS'c'
I183
sS'michaelbrownjustice'
p843
I737
sS'transparency'
p844
I1226
sS'pdx'
p845
I914
sS'career'
p846
I188
sS'supd'
p847
I1158
sS'siyofuerat'
p848
I1092
sS'officer'
p849
I874
sS'morehouse18'
p850
I770
sS'demilitarizethepolice'
p851
I293
sS'hypocrites'
p852
I533
sS'looters'
p853
I696
sS'justice4kyam'
p854
I624
sS'worldrssfeeds'
p855
I1330
sS'baltimore'
p856
I115
sS'chavezvive'
p857
I207
sS'journarrest'
p858
I616
sS'inflammatory'
p859
I564
sS'censorship'
p860
I200
sS'unitedwestand'
p861
I1264
sS'fergusonpolice'
p862
I388
sS'baden'
p863
I109
sS'pot'
p864
I950
sS'warcrimes'
p865
I1291
sS'ciegodeavila'
p866
I220
sS'retweet'
p867
I1019
sS'wth'
p868
I1339
sS'gatebreakers'
p869
I448
sS'robinwilliams'
p870
I1037
sS'disabilityjustice'
p871
I306
sS'myawhite'
p872
I789
sS'wiunion'
p873
I1324
sS'humanrights'
p874
I530
sS'tjms'
p875
I1213
sS'liberal'
p876
I684
sS'jurno'
p877
I621
sS'arrestdarrenwilson'
p878
I85
sS'paidforcigars'
p879
I903
sS'hannity'
p880
I495
sS'protest'
p881
I967
sS'yale'
p882
I1342
sS'oliver'
p883
I882
sS'howard'
p884
I523
sS'union'
p885
I1261
sS'tgif'
p886
I1183
sS'bbc'
p887
I120
sS'ucla'
p888
I1250
sS'morethanamoral'
p889
I771
sS'sharedvalues'
p890
I1075
sS'newsone'
p891
I820
sS'blacklives'
p892
I145
sS'freshmanadvice'
p893
I434
sS'bees'
p894
I124
sS'powerfulimage'
p895
I953
sS'teaparty'
p896
I1174
sS'gaza'
p897
I449
sS'privilege'
p898
I964
sS'angelajim'
p899
I66
sS'losdelsonido'
p900
I701
sS'opencarry'
p901
I889
sS'wearepromotion'
p902
I1300
sS'website'
p903
I1302
sS'swishersweets'
p904
I1163
sS'teamye'
p905
I1173
sS'diversity'
p906
I310
sS'innocent'
p907
I573
sS'realtalk'
p908
I1003
sS'usf'
p909
I1272
sS'fire'
p910
I403
sS'factsonlyplease'
p911
I370
sS'republicans'
p912
I1015
sS'ctnews'
p913
I269
sS'dunkerpunks'
p914
I327
sS'ire14'
p915
I583
sS'hmm'
p916
I515
sS'dontshoot'
p917
I319
sS'sjuorientation'
p918
I1095
sS'stopandfrish'
p919
I1135
sS'standup'
p920
I1122
sS'atlanta'
p921
I92
sS'hblsa'
p922
I503
sS'p2'
p923
I902
sS'indyref'
p924
I560
sS'georgia'
p925
I457
sS'makinahd'
p926
I716
sS'developing'
p927
I301
sS'molonlabe'
p928
I764
sS'gameinsight'
p929
I446
sS'selfie'
p930
I1066
sS'scnews'
p931
I1057
sS'chsocm'
p932
I218
sS'elitedaily'
p933
I341
sS'attentionwhore'
p934
I95
sS'tougaloo'
p935
I1220
sS'musicevents'
p936
I788
sS'justiceorjustus'
p937
I635
sS'whiteprivilege'
p938
I1315
sS'jamesalexandergordon'
p939
I599
sS'lozteletobiiz'
p940
I705
sS'yesallwomen'
p941
I1345
sS'geoengineering'
p942
I456
sS'orca'
p943
I895
sS'taser'
p944
I1167
sS'backroompolitics'
p945
I107
sS'rip'
p946
I1028
sS'ajamstream'
p947
I40
sS'lying'
p948
I712
sS'politics'
p949
I946
sS'thug'
p950
I1209
sS'tyonews'
p951
I1244
sS'id'
p952
I542
sS'ig'
p953
I547
sS'scotus'
p954
I1060
sS'antisec'
p955
I73
sS'drugwar'
p956
I325
sS'ing'
p957
I568
sS'throwbackthursday'
p958
I1208
sS'grant'
p959
I473
sS'media'
p960
I728
sS'universityoftexas'
p961
I1267
sS'quagmire'
p962
I979
sS'rwnjalert'
p963
I1044
sS'stoptherhetoric'
p964
I1142
sS'unity'
p965
I1265
sS'tpnn'
p966
I1222
sS'istandwithobama'
p967
I592
sS'catfish'
p968
I191
sS'mcso'
p969
I727
sS'mikewilson'
p970
I748
sS'wakeup'
p971
I1289
sS'android'
p972
I62
sS'killingus'
p973
I648
sS'showthedamnvideo'
p974
I1085
sS'fyi'
p975
I442
sS'commonsense'
p976
I242
sS'concluferguson'
p977
I246
sS'tu'
p978
I1239
sS'ultimas'
p979
I1256
sS'myfergusonpd'
p980
I791
sS'nsa'
p981
I853
sS'wilson'
p982
I1323
sS'bennett18'
p983
I132
sS'mikeferguson'
p984
I747
sS'renaissanceman'
p985
I1010
sS'chemtrails'
p986
I208
sS'smatterings'
p987
I1097
sS'harvardlaw'
p988
I500
sS'toxicology'
p989
I1221
sS'3ga'
p990
I8
sS'cartoon'
p991
I189
sS'lcfc'
p992
I673
sS'erinburnett'
p993
I356
sS'darrenwilson'
p994
I280
sS'costa'
p995
I256
sS'tokyo'
p996
I1217
sS'ndaa'
p997
I804
sS'cnnlogic'
p998
I234
sS'demilitarizethenationalguard'
p999
I292
sS'thailand'
p1000
I1184
sS'woodwardbernstein'
p1001
I1326
sS'workbootprejudice'
p1002
I1327
sS'staypeaceful'
p1003
I1126
sS'preppers'
p1004
I958
sS'u0633u0648u0631u064au0627'
p1005
I1248
sS'vets'
p1006
I1277
sS'ncat'
p1007
I802
sS'protesters'
p1008
I968
sS'echoes'
p1009
I330
sS'furgusonshooting'
p1010
I441
sS'luispokel'
p1011
I709
sS'wearetargets'
p1012
I1301
sS'nspoli'
p1013
I854
sS'jhonsonfresz'
p1014
I607
sS'fergusonpoliceradio'
p1015
I389
sS'michaelmoore'
p1016
I741
sS'peace'
p1017
I915
sS'aintnobodygottimeforthat'
p1018
I39
sS'fywnyt'
p1019
I443
sS'wegotyousis'
p1020
I1304
sS'newblackpanthers'
p1021
I814
sS'money'
p1022
I766
sS'voteyes'
p1023
I1287
sS'weekend'
p1024
I1303
sS'yeremiito21'
p1025
I1344
sS'lds'
p1026
I674
sS'weiipepo'
p1027
I1305
sS'mfs'
p1028
I733
sS'tgdn'
p1029
I1182
sS'howcool'
p1030
I525
sS'world'
p1031
I1328
sS'facts'
p1032
I369
sS'lesm'
p1033
I678
sS'blacklifeisvalued'
p1034
I144
sS'hrva'
p1035
I527
sS'nojustice'
p1036
I836
sS'justice4michaelbrown'
p1037
I625
sS'justiceformichael'
p1038
I629
sS'racisme'
p1039
I987
sS'postracialamerica'
p1040
I949
sS'feminist'
p1041
I377
sS'rallyforferguson'
p1042
I994
sS'staywoke'
p1043
I1127
sS'u3075u3093u3069u3057u306eu5de8u4eba'
p1044
I1249
sS'senseless'
p1045
I1067
sS'endangeredspecies'
p1046
I345
sS'dontshoothandsup'
p1047
I320
sS'arresting'
p1048
I87
sS'bringtherain'
p1049
I164
sS'adoption'
p1050
I29
sS'teenager'
p1051
I1179
sS'hardtimes'
p1052
I499
sS'peaceonthestreets'
p1053
I918
sS'mikebrownrally'
p1054
I746
sS'nojusticenopeace'
p1055
I837
sS'freeemall'
p1056
I426
sS'disobey'
p1057
I309
sS'citizenjournalist'
p1058
I223
sS'watchingjamesbrown'
p1059
I1295
sS'psa'
p1060
I974
sS'australia'
p1061
I100
sS'smdh'
p1062
I1098
sS'angelacoreyoutnow'
p1063
I65
sS'tearthismuddufuckaup'
p1064
I1176
sS'aggregation'
p1065
I35
sS'angellove'
p1066
I68
sS'gohome'
p1067
I469
sS'hank_johnson'
p1068
I494
sS'np'
p1069
I850
sS'huffpost'
p1070
I529
sS'biggovsucks'
p1071
I136
sS'mom'
p1072
I765
sS'potus'
p1073
I951
sS'paidnetworking'
p1074
I904
sS'coverup'
p1075
I258
sS'ripericgarner'
p1076
I1029
sS'racists'
p1077
I991
sS'sharpton'
p1078
I1076
sS'wesupport'
p1079
I1307
sS'iknowsbetter'
p1080
I548
sS'dellwood'
p1081
I291
sS'powertothepeople'
p1082
I954
sS'tragedy'
p1083
I1224
sS'alsharpnuts'
p1084
I46
sS'montanatv'
p1085
I767
sS'jayz'
p1086
I603
sS'rightnow'
p1087
I1024
sS'zimmerman'
p1088
I1350
sS'josedaviid13'
p1089
I613
sS'nigeriahiddenwar'
p1090
I827
sS'awkwa'
p1091
I104
sS'thefive'
p1092
I1190
sS'journalist'
p1093
I614
sS'robbery'
p1094
I1035
sS'icebucketchallenge'
p1095
I539
sS'jjgo'
p1096
I608
sS'right2rebel'
p1097
I1023
sS'endorsed'
p1098
I348
sS'ourstrugglesareone'
p1099
I899
sS'mhp'
p1100
I734
sS'wethepeople'
p1101
I1308
sS'attorney'
p1102
I96
sS'wolfmovement'
p1103
I1325
sS'acab'
p1104
I23
sS'804formikebrown'
p1105
I11
sS'soma'
p1106
I1109
sS'nojustuce'
p1107
I838
sS'twitter'
p1108
I1243
sS'feildtrade'
p1109
I376
sS'racist2014'
p1110
I990
sS'fergusoncopidentified'
p1111
I381
sS'economie'
p1112
I331
sS'cleveland'
p1113
I228
sS'purpleandchrome'
p1114
I976
sS'alternet'
p1115
I49
sS'halifax'
p1116
I488
sS'batonrouge'
p1117
I119
sS'cau18'
p1118
I193
sS'taxpayers'
p1119
I1168
sS'racebaiters'
p1120
I983
sS'oakland'
p1121
I863
sS'operationhelporhush'
p1122
I890
sS'kony2012'
p1123
I655
sS'vote'
p1124
I1286
sS'douchebag'
p1125
I323
sS'zionist'
p1126
I1351
sS'travonmartin'
p1127
I1227
sS'us_news'
p1128
I1269
sS'nook'
p1129
I839
sS'wrong'
p1130
I1333
sS'chopchop'
p1131
I214
sS'tlot'
p1132
I1214
sS'turtleisland'
p1133
I1241
sS'triggerhappy'
p1134
I1233
sS'sosferguson'
p1135
I1113
sS'endracism'
p1136
I350
sS'ac360'
p1137
I21
sS'period'
p1138
I923
sS'yayicamacho'
p1139
I1343
sS'thebrointheblueshirt'
p1140
I1189
sS'fergusoncoverup'
p1141
I383
sS'mepolitics'
p1142
I732
sS'pr'
p1143
I955
sS'columbus'
p1144
I240
sS'racism'
p1145
I986
sS'business'
p1146
I179
sS'ps'
p1147
I973
sS'ronpaul'
p1148
I1039
sS'newday'
p1149
I815
sS'specialreport'
p1150
I1116
sS'agreement'
p1151
I37
sS'whitesupremacists'
p1152
I1318
sS'nelly'
p1153
I808
sS'internacionales24'
p1154
I577
sS'leadership'
p1155
I675
sS'resign'
p1156
I1016
sS'bigstepbackwards'
p1157
I137
sS'bs'
p1158
I170
sS'banksters'
p1159
I117
sS'cnncenter'
p1160
I233
sS'cbbuk'
p1161
I195
sS'dothemath'
p1162
I322
sS'anationoflaws'
p1163
I60
sS'revolution'
p1164
I1021
sS'latinos'
p1165
I669
sS'aca'
p1166
I22
sS'ok'
p1167
I879
sS'acon'
p1168
I25
sS'endmartiallaw'
p1169
I347
sS'freedom'
p1170
I423
sS'violence'
p1171
I1283
sS'tibetan'
p1172
I1211
sS'hiphop'
p1173
I511
sS'ohok'
p1174
I877
sS'lifeless'
p1175
I687
sS'genocide'
p1176
I455
sS'learnmore'
p1177
I676
sS'amadoudiallo'
p1178
I50
sS'gunfail'
p1179
I482
sS'palestinians'
p1180
I907
sS'liar'
p1181
I681
sS'nixon'
p1182
I829
sS'losers'
p1183
I702
sS'uniteblue'
p1184
I1262
sS'supportfergusonbusinesses'
p1185
I1159
sS'clinton'
p1186
I229
sS'racecard'
p1187
I984
sS'scumbags'
p1188
I1062
sS'whites'
p1189
I1316
sS'baltimoreforferguson'
p1190
I116
sS'abusive'
p1191
I20
sS'wshhfamous'
p1192
I1335
sS'washington'
p1193
I1294
sS'lookouthesgotagun'
p1194
I695
sS'theweek'
p1195
I1199
sS'garner'
p1196
I447
sS'justice4mikebrown'
p1197
I626
sS'guard'
p1198
I479
sS'morningreads'
p1199
I774
sS'marshals'
p1200
I722
sS'blacktwitter'
p1201
I152
sS'supremacyisnteverything'
p1202
I1160
sS'amsterdam'
p1203
I58
sS'france'
p1204
I419
sS'newsnight'
p1205
I819
sS'ows'
p1206
I901
sS'communists'
p1207
I243
sS'america'
p1208
I52
sS'libcrib'
p1209
I683
sS'blackpower'
p1210
I150
sS'aarp'
p1211
I15
sS'dmediison_21'
p1212
I314
sS'hesfucked'
p1213
I509
sS'question'
p1214
I980
sS'iaedfuture'
p1215
I535
sS'lol'
p1216
I693
sS'livefree'
p1217
I689
sS'knockout'
p1218
I652
sS'legende'
p1219
I677
sS'shottycoverup'
p1220
I1084
sS'magicbulletbyke'
p1221
I714
sS'strong'
p1222
I1148
sS'bruh'
p1223
I168
sS'whydarrenwilsonwhy'
p1224
I1322
sS'silicondesert'
p1225
I1090
sS'ourgaza'
p1226
I898
sS'justicemikebrown'
p1227
I634
sS'ripmikemike'
p1228
I1032
sS'rapwave'
p1229
I996
sS'ethnography'
p1230
I358
sS'whereisdarrenwilson'
p1231
I1312
sS'stopwhitepeople2014'
p1232
I1144
sS'bemad'
p1233
I128
sS'oppressed'
p1234
I892
sS'occupywallstreet'
p1235
I871
sS'inept'
p1236
I561
sS'immigration'
p1237
I552
sS'hu'
p1238
I528
sS'racismneverend'
p1239
I989
sS'getty'
p1240
I458
sS'related'
p1241
I1007
sS'oscargrant'
p1242
I897
sS'copwatch'
p1243
I254
sS'memphis'
p1244
I731
sS'pjnet'
p1245
I927
sS'bundy'
p1246
I176
sS'cia'
p1247
I219
sS'fraud'
p1248
I421
sS'isis'
p1249
I586
sS'dailyracism'
p1250
I275
sS'losminidelsonido'
p1251
I703
sS'moleg'
p1252
I763
sS'wap'
p1253
I1290
sS'signed'
p1254
I1088
sS'palestine'
p1255
I906
sS'lvg'
p1256
I711
sS'racialdivide'
p1257
I985
sS'onenation'
p1258
I885
sS'johncrawford'
p1259
I611
sS'dukelacrosse'
p1260
I326
sS'accountabiity'
p1261
I24
sS'martiallaw'
p1262
I723
sS'propaganda'
p1263
I966
sS'mbgc'
p1264
I726
sS'cbc'
p1265
I196
sS'proud'
p1266
I971
sS'disgrace'
p1267
I308
sS'fastandfurious'
p1268
I374
sS'sctweets'
p1269
I1061
sS'godhelpusall'
p1270
I468
sS'youtube'
p1271
I1347
sS'secondamendment'
p1272
I1063
sS'al'
p1273
I41
sS'evidence'
p1274
I360
sS'dm_ruben04'
p1275
I312
sS'ap'
p1276
I75
sS'msm'
p1277
I775
sS'ar'
p1278
I79
sS'hangdarrenwilson'
p1279
I493
sS'gunsvscameras'
p1280
I486
sS'violated'
p1281
I1282
sS'home'
p1282
I517
sS'alsicebucketchallenge'
p1283
I48
sS'education'
p1284
I337
sS'imsoconfused'
p1285
I555
sS'film'
p1286
I401
sS'jesse'
p1287
I604
sS'nh'
p1288
I824
sS'thugs'
p1289
I1210
sS'shootum'
p1290
I1081
sS'plaea'
p1291
I928
sS'vibeinferguson'
p1292
I1278
sS'bicycling'
p1293
I134
sS'peacerally'
p1294
I919
sS'formikebrown'
p1295
I415
sS'structuralracism'
p1296
I1151
sS'amerikkka'
p1297
I57
sS'snowden'
p1298
I1103
sS'power'
p1299
I952
sS'nz'
p1300
I862
sS'odavelymusic'
p1301
I873
sS'fergusonriots'
p1302
I391
sS'nottheonion'
p1303
I848
sS'virginia'
p1304
I1285
sS'nra'
p1305
I851
sS'karma'
p1306
I643
sS'ukraine'
p1307
I1255
sS'hacker'
p1308
I487
sS'thankgod'
p1309
I1185
sS'swat'
p1310
I1162
sS'congress'
p1311
I247
sS'marshalllaw'
p1312
I721
sS'dnow'
p1313
I315
sS'copblock'
p1314
I251
sS'takebackamerica'
p1315
I1165
sS'wshhvine'
p1316
I1336
sS'princetonu'
p1317
I962
sS'killercop'
p1318
I647
sS'justiceformikebrown'
p1319
I632
sS'tinypoems'
p1320
I1212
sS'important'
p1321
I554
sS'peopleoverpolitics'
p1322
I921
sS'badidea'
p1323
I110
sS'natguardwatch'
p1324
I797
sS'rp'
p1325
I1040
sS'muckreads'
p1326
I779
sS'teamyamita'
p1327
I1172
sS'cdnpoli'
p1328
I198
sS'christians'
p1329
I217
sS'foia'
p1330
I411
sS'rights'
p1331
I1025
sS'iamawake'
p1332
I536
sS'occupyoakland'
p1333
I870
sS'happening'
p1334
I496
sS'americaunderattack'
p1335
I55
sS'officerdarrenwilson'
p1336
I875
sS'u062du0644u0628'
p1337
I1246
sS'militarizedpolice'
p1338
I752
sS'whiteshameday'
p1339
I1317
sS'alsharpton'
p1340
I47
sS'nmos'
p1341
I830
sS'ontoday'
p1342
I887
sS'nrx'
p1343
I852
sS'students'
p1344
I1153
sS'fsu'
p1345
I435
sS'protests'
p1346
I970
sS'missouri'
p1347
I757
sS'destacadas'
p1348
I298
sS'mklissoproud'
p1349
I759
sS'technews'
p1350
I1178
sS'speakout'
p1351
I1115
s.