(dp1
I0
S''
sI1
S'11alive'
p2
sI2
S'1a'
p3
sI3
S'1stam'
p4
sI4
S'1stamendment'
p5
sI5
S'1stamendmentviolated'
p6
sI6
S'263chat'
p7
sI7
S'2a'
p8
sI8
S'3ga'
p9
sI9
S'49ers'
p10
sI10
S'7news'
p11
sI11
S'804formikebrown'
p12
sI12
S'810style'
p13
sI13
S'88dc'
p14
sI14
S'a'
sI15
S'aarp'
p15
sI16
S'abbott'
p16
sI17
S'abc'
p17
sI18
S'abd'
p18
sI19
S'abuseofpower'
p19
sI20
S'abusive'
p20
sI21
S'ac360'
p21
sI22
S'aca'
p22
sI23
S'acab'
p23
sI24
S'accountabiity'
p24
sI25
S'acon'
p25
sI26
S'activistworldnewsnow'
p26
sI27
S'actualidad'
p27
sI28
S'actualidadrt'
p28
sI29
S'adoption'
p29
sI30
S'afghanistan'
p30
sI31
S'afp'
p31
sI32
S'afroanonymous'
p32
sI33
S'aftermomentvideo'
p33
sI34
S'aggiepride'
p34
sI35
S'aggregation'
p35
sI36
S'aggressor'
p36
sI37
S'agreement'
p37
sI38
S'ahhhshit'
p38
sI39
S'aintnobodygottimeforthat'
p39
sI40
S'ajamstream'
p40
sI41
S'al'
p41
sI42
S'allblackmen'
p42
sI43
S'alllivesmatter'
p43
sI44
S'alllove'
p44
sI45
S'allpolice'
p45
sI46
S'alsharpnuts'
p46
sI47
S'alsharpton'
p47
sI48
S'alsicebucketchallenge'
p48
sI49
S'alternet'
p49
sI50
S'amadoudiallo'
p50
sI51
S'amagi'
p51
sI52
S'america'
p52
sI53
S'american'
p53
sI54
S'americans'
p54
sI55
S'americaunderattack'
p55
sI56
S'amerika'
p56
sI57
S'amerikkka'
p57
sI58
S'amsterdam'
p58
sI59
S'anacondavidwednesdayonvevo'
p59
sI60
S'anationoflaws'
p60
sI61
S'andeverythingelse'
p61
sI62
S'android'
p62
sI63
S'androidgames'
p63
sI64
S'andydiiaz1'
p64
sI65
S'angelacoreyoutnow'
p65
sI66
S'angelajim'
p66
sI67
S'angelchallenge'
p67
sI68
S'angellove'
p68
sI69
S'animals'
p69
sI70
S'anoncorpwatch'
p70
sI71
S'anonymous'
p71
sI72
S'answers1stquestioninthread'
p72
sI73
S'antisec'
p73
sI74
S'antonsolamente'
p74
sI75
S'ap'
p75
sI76
S'apaop'
p76
sI77
S'app'
p77
sI78
S'apple'
p78
sI79
S'ar'
p79
sI80
S'archcitydefenders'
p80
sI81
S'arkansas'
p81
sI82
S'armedchairdetectives'
p82
sI83
S'armedrobbery'
p83
sI84
S'army'
p84
sI85
S'arrestdarrenwilson'
p85
sI86
S'arrested'
p86
sI87
S'arresting'
p87
sI88
S'art'
p88
sI89
S'asa14'
p89
sI90
S'assaultonofficer'
p90
sI91
S'atl'
p91
sI92
S'atlanta'
p92
sI93
S'atlrally'
p93
sI94
S'attacking'
p94
sI95
S'attentionwhore'
p95
sI96
S'attorney'
p96
sI97
S'atx'
p97
sI98
S'auc18'
p98
sI99
S'audiobook'
p99
sI100
S'australia'
p100
sI101
S'authentic'
p101
sI102
S'autopsy'
p102
sI103
S'avantilprossimo'
p103
sI104
S'awkwa'
p104
sI105
S'aztech'
p105
sI106
S'b2b'
p106
sI107
S'backroompolitics'
p107
sI108
S'badcops'
p108
sI109
S'baden'
p109
sI110
S'badidea'
p110
sI111
S'bahrain'
p111
sI112
S'bahrainstyle'
p112
sI113
S'bai'
p113
sI114
S'balarts'
p114
sI115
S'baltimore'
p115
sI116
S'baltimoreforferguson'
p116
sI117
S'banksters'
p117
sI118
S'barbiojm'
p118
sI119
S'batonrouge'
p119
sI120
S'bbc'
p120
sI121
S'bds'
p121
sI122
S'bebolapara'
p122
sI123
S'bedstuynmos'
p123
sI124
S'bees'
p124
sI125
S'befree'
p125
sI126
S'beingblack'
p126
sI127
S'bejust'
p127
sI128
S'bemad'
p128
sI129
S'benghazi'
p129
sI130
S'benjamincrump'
p130
sI131
S'bennett'
p131
sI132
S'bennett18'
p132
sI133
S'beyonce'
p133
sI134
S'bicycling'
p134
sI135
S'biggovernmentsucks'
p135
sI136
S'biggovsucks'
p136
sI137
S'bigstepbackwards'
p137
sI138
S'bisonpride'
p138
sI139
S'bitcoin'
p139
sI140
S'black'
p140
sI141
S'blackandwhitecookie'
p141
sI142
S'blackbarmitzvah'
p142
sI143
S'blackgods'
p143
sI144
S'blacklifeisvalued'
p144
sI145
S'blacklives'
p145
sI146
S'blacklivesmatter'
p146
sI147
S'blackman'
p147
sI148
S'blackonblack'
p148
sI149
S'blackpanthers'
p149
sI150
S'blackpower'
p150
sI151
S'blackpussies'
p151
sI152
S'blacktwitter'
p152
sI153
S'blackyouthmatter'
p153
sI154
S'blastem'
p154
sI155
S'bodycams'
p155
sI156
S'bordercrisis'
p156
sI157
S'boston'
p157
sI158
S'boy_swag'
p158
sI159
S'boycottisrael'
p159
sI160
S'breaking'
p160
sI161
S'breakingnews'
p161
sI162
S'brianmundial'
p162
sI163
S'bringbackourgirls'
p163
sI164
S'bringtherain'
p164
sI165
S'brokenwindows'
p165
sI166
S'brooklyn'
p166
sI167
S'brown'
p167
sI168
S'bruh'
p168
sI169
S'brynmawr'
p169
sI170
S'bs'
p170
sI171
S'bsg'
p171
sI172
S'btr'
p172
sI173
S'bucketchallenge'
p173
sI174
S'buildpeace'
p174
sI175
S'bullshit'
p175
sI176
S'bundy'
p176
sI177
S'bundyranch'
p177
sI178
S'bush'
p178
sI179
S'business'
p179
sI180
S'byanymeansnecessary'
p180
sI181
S'byp100'
p181
sI182
S'byu'
p182
sI183
S'c'
sI184
S'c4news'
p183
sI185
S'canada'
p184
sI186
S'capitalista'
p185
sI187
S'captainjohnson'
p186
sI188
S'career'
p187
sI189
S'cartoon'
p188
sI190
S'cashinin'
p189
sI191
S'catfish'
p190
sI192
S'catholicstl'
p191
sI193
S'cau18'
p192
sI194
S'caution'
p193
sI195
S'cbbuk'
p194
sI196
S'cbc'
p195
sI197
S'ccot'
p196
sI198
S'cdnpoli'
p197
sI199
S'celeb'
p198
sI200
S'censorship'
p199
sI201
S'cerd'
p200
sI202
S'cesarina_x3'
p201
sI203
S'cfr'
p202
sI204
S'chamakoserioo'
p203
sI205
S'change'
p204
sI206
S'changemustcome'
p205
sI207
S'chavezvive'
p206
sI208
S'chemtrails'
p207
sI209
S'chi'
p208
sI210
S'chicago'
p209
sI211
S'chiefjackson'
p210
sI212
S'chiefofpigs'
p211
sI213
S'chips'
p212
sI214
S'chopchop'
p213
sI215
S'chrismatthews'
p214
sI216
S'christian'
p215
sI217
S'christians'
p216
sI218
S'chsocm'
p217
sI219
S'cia'
p218
sI220
S'ciegodeavila'
p219
sI221
S'circlingthewagons'
p220
sI222
S'cities'
p221
sI223
S'citizenjournalist'
p222
sI224
S'citizenwitnessing'
p223
sI225
S'civildisobedience'
p224
sI226
S'civilrights'
p225
sI227
S'classwar'
p226
sI228
S'cleveland'
p227
sI229
S'clinton'
p228
sI230
S'cltv'
p229
sI231
S'cnetasia'
p230
sI232
S'cnn'
p231
sI233
S'cnncenter'
p232
sI234
S'cnnlogic'
p233
sI235
S'cnnnewsroom'
p234
sI236
S'coach'
p235
sI237
S'cogic'
p236
sI238
S'cold'
p237
sI239
S'college'
p238
sI240
S'columbus'
p239
sI241
S'comedy'
p240
sI242
S'commonsense'
p241
sI243
S'communists'
p242
sI244
S'communitypolcing'
p243
sI245
S'comrade'
p244
sI246
S'concluferguson'
p245
sI247
S'congress'
p246
sI248
S'constitution'
p247
sI249
S'conversationmobile'
p248
sI250
S'cop'
p249
sI251
S'copblock'
p250
sI252
S'copsandtheklangohandinhand'
p251
sI253
S'copskillkids'
p252
sI254
S'copwatch'
p253
sI255
S'corrupt'
p254
sI256
S'costa'
p255
sI257
S'courage'
p256
sI258
S'coverup'
p257
sI259
S'coward'
p258
sI260
S'cpcueropornoqrafico'
p259
sI261
S'crazycops'
p260
sI262
S'crazyworld'
p261
sI263
S'crime'
p262
sI264
S'crimebutnotime'
p263
sI265
S'crisis'
p264
sI266
S'crisisinferguson'
p265
sI267
S'crookedpigs'
p266
sI268
S'ctl'
p267
sI269
S'ctnews'
p268
sI270
S'cuba'
p269
sI271
S'cubanfive'
p270
sI272
S'dageneralquotes'
p271
sI273
S'dagr8fm'
p272
sI274
S'dailydefinition'
p273
sI275
S'dailyracism'
p274
sI276
S'dallas'
p275
sI277
S'dance'
p276
sI278
S'daniel_zabala02'
p277
sI279
S'darrenwils'
p278
sI280
S'darrenwilson'
p279
sI281
S'darrenwilsonk'
p280
sI282
S'darrenwilsonshotmichaelbrown'
p281
sI283
S'darrenwison'
p282
sI284
S'dartmouth'
p283
sI285
S'dashcams'
p284
sI286
S'dc'
p285
sI287
S'dc2mo'
p286
sI288
S'dcrs2014'
p287
sI289
S'ddhh'
p288
sI290
S'decaturga'
p289
sI291
S'dellwood'
p290
sI292
S'demilitarizethenationalguard'
p291
sI293
S'demilitarizethepolice'
p292
sI294
S'democat'
p293
sI295
S'democracy'
p294
sI296
S'departmentofdefense'
p295
sI297
S'design'
p296
sI298
S'destacadas'
p297
sI299
S'destiny'
p298
sI300
S'detroit'
p299
sI301
S'developing'
p300
sI302
S'diaspora'
p301
sI303
S'dickandballs'
p302
sI304
S'die'
p303
sI305
S'difference'
p304
sI306
S'disabilityjustice'
p305
sI307
S'discriminacixf3nracial'
p306
sI308
S'disgrace'
p307
sI309
S'disobey'
p308
sI310
S'diversity'
p309
sI311
S'djs'
p310
sI312
S'dm_ruben04'
p311
sI313
S'dmargeniis_x3'
p312
sI314
S'dmediison_21'
p313
sI315
S'dnow'
p314
sI316
S'dogecoin'
p315
sI317
S'doj'
p316
sI318
S'dontgiveup'
p317
sI319
S'dontshoot'
p318
sI320
S'dontshoothandsup'
p319
sI321
S'dorianjohnson'
p320
sI322
S'dothemath'
p321
sI323
S'douchebag'
p322
sI324
S'downtownatl'
p323
sI325
S'drugwar'
p324
sI326
S'dukelacrosse'
p325
sI327
S'dunkerpunks'
p326
sI328
S'eashl'
p327
sI329
S'ebola'
p328
sI330
S'echoes'
p329
sI331
S'economie'
p330
sI332
S'economy'
p331
sI333
S'ecore'
p332
sI334
S'edchat'
p333
sI335
S'edequity'
p334
sI336
S'edshow'
p335
sI337
S'education'
p336
sI338
S'eeuu'
p337
sI339
S'efc'
p338
sI340
S'egypt'
p339
sI341
S'elitedaily'
p340
sI342
S'elpjisdope'
p341
sI343
S'elsipogtog'
p342
sI344
S'embarrassment'
p343
sI345
S'endangeredspecies'
p344
sI346
S'endhate'
p345
sI347
S'endmartiallaw'
p346
sI348
S'endorsed'
p347
sI349
S'endpolicebrutality'
p348
sI350
S'endracism'
p349
sI351
S'entertainment'
p350
sI352
S'equalaccess'
p351
sI353
S'equality'
p352
sI354
S'ericgarner'
p353
sI355
S'ericholder'
p354
sI356
S'erinburnett'
p355
sI357
S'estlouis'
p356
sI358
S'ethnography'
p357
sI359
S'everyonethoughtit'
p358
sI360
S'evidence'
p359
sI361
S'executed'
p360
sI362
S'exodus'
p361
sI363
S'exoutsideagitators'
p362
sI364
S'ezellford'
p363
sI365
S'fabuloxmag'
p364
sI366
S'facebook'
p365
sI367
S'facepalm'
p366
sI368
S'fact'
p367
sI369
S'facts'
p368
sI370
S'factsonlyplease'
p369
sI371
S'fail'
p370
sI372
S'famiilypretty'
p371
sI373
S'fascism'
p372
sI374
S'fastandfurious'
p373
sI375
S'fb'
p374
sI376
S'feildtrade'
p375
sI377
S'feminist'
p376
sI378
S'fergusionfiasco'
p377
sI379
S'ferguson'
p378
sI380
S'fergusonas'
p379
sI381
S'fergusoncopidentified'
p380
sI382
S'fergusoncoversup'
p381
sI383
S'fergusoncoverup'
p382
sI384
S'fergusonlive'
p383
sI385
S'fergusonlivestream'
p384
sI386
S'fergusononfireusa'
p385
sI387
S'fergusonpd'
p386
sI388
S'fergusonpolice'
p387
sI389
S'fergusonpoliceradio'
p388
sI390
S'fergusonriot'
p389
sI391
S'fergusonriots'
p390
sI392
S'fergusonshooting'
p391
sI393
S'fergusonshotting'
p392
sI394
S'fergusontapes'
p393
sI395
S'fergusontodc'
p394
sI396
S'fergusontogaza'
p395
sI397
S'fergusun'
p396
sI398
S'ff'
p397
sI399
S'fiddlingwhileromeburns'
p398
sI400
S'fightfor15'
p399
sI401
S'film'
p400
sI402
S'finance'
p401
sI403
S'fire'
p402
sI404
S'firstaid'
p403
sI405
S'firsttake'
p404
sI406
S'firsttimeforeverything'
p405
sI407
S'fixitjesus'
p406
sI408
S'fl3'
p407
sI409
S'flexin'
p408
sI410
S'fn'
p409
sI411
S'foia'
p410
sI412
S'follow'
p411
sI413
S'food'
p412
sI414
S'forfuturereference'
p413
sI415
S'formikebrown'
p414
sI416
S'fox25'
p415
sI417
S'foxforthesheeple'
p416
sI418
S'foxracistmedia'
p417
sI419
S'france'
p418
sI420
S'frangelgraph'
p419
sI421
S'fraud'
p420
sI422
S'freeawkwardduck'
p421
sI423
S'freedom'
p422
sI424
S'freedomofspeech'
p423
sI425
S'freedomofthepress'
p424
sI426
S'freeemall'
p425
sI427
S'freegaza'
p426
sI428
S'freehedy'
p427
sI429
S'freemanbosley'
p428
sI430
S'freeolson'
p429
sI431
S'freepalestine'
p430
sI432
S'freepress'
p431
sI433
S'freethegranny'
p432
sI434
S'freshmanadvice'
p433
sI435
S'fsu'
p434
sI436
S'ftp'
p435
sI437
S'fuckery'
p436
sI438
S'fuckinmaury'
p437
sI439
S'fuckthepolice'
p438
sI440
S'furgeson'
p439
sI441
S'furgusonshooting'
p440
sI442
S'fyi'
p441
sI443
S'fywnyt'
p442
sI444
S'ga'
p443
sI445
S'gabbarism'
p444
sI446
S'gameinsight'
p445
sI447
S'garner'
p446
sI448
S'gatebreakers'
p447
sI449
S'gaza'
p448
sI450
S'gazachildren'
p449
sI451
S'gazans'
p450
sI452
S'gazaunderattack'
p451
sI453
S'geld'
p452
sI454
S'generationofracism'
p453
sI455
S'genocide'
p454
sI456
S'geoengineering'
p455
sI457
S'georgia'
p456
sI458
S'getty'
p457
sI459
S'gettyimages'
p458
sI460
S'gettyphotographer'
p459
sI461
S'gezi'
p460
sI462
S'gg_rmc'
p461
sI463
S'gls14'
p462
sI464
S'gm'
p463
sI465
S'god'
p464
sI466
S'godblessamerica'
p465
sI467
S'godforgiveswedont'
p466
sI468
S'godhelpusall'
p467
sI469
S'gohome'
p468
sI470
S'good'
p469
sI471
S'goodmorning'
p470
sI472
S'gop'
p471
sI473
S'grant'
p472
sI474
S'grassroots'
p473
sI475
S'greenpregnancy'
p474
sI476
S'greta'
p475
sI477
S'gretawire'
p476
sI478
S'growup'
p477
sI479
S'guard'
p478
sI480
S'guardian'
p479
sI481
S'gun'
p480
sI482
S'gunfail'
p481
sI483
S'gunit'
p482
sI484
S'guns'
p483
sI485
S'gunsense'
p484
sI486
S'gunsvscameras'
p485
sI487
S'hacker'
p486
sI488
S'halifax'
p487
sI489
S'handsup'
p488
sI490
S'handsupdontshoot'
p489
sI491
S'handsupla'
p490
sI492
S'handsupmemphis'
p491
sI493
S'hangdarrenwilson'
p492
sI494
S'hank_johnson'
p493
sI495
S'hannity'
p494
sI496
S'happening'
p495
sI497
S'happeningnow'
p496
sI498
S'hardball'
p497
sI499
S'hardtimes'
p498
sI500
S'harvardlaw'
p499
sI501
S'hbcu'
p500
sI502
S'hbcus'
p501
sI503
S'hblsa'
p502
sI504
S'headfake'
p503
sI505
S'healing'
p504
sI506
S'hedyepstein'
p505
sI507
S'heisnotdispoable'
p506
sI508
S'heroes'
p507
sI509
S'hesfucked'
p508
sI510
S'hip'
p509
sI511
S'hiphop'
p510
sI512
S'hiphopsummit'
p511
sI513
S'history'
p512
sI514
S'hls'
p513
sI515
S'hmm'
p514
sI516
S'holder'
p515
sI517
S'home'
p516
sI518
S'homeforthebrave'
p517
sI519
S'honorsociety'
p518
sI520
S'hoodiesupmusicloud'
p519
sI521
S'hoovesup'
p520
sI522
S'hot'
p521
sI523
S'howard'
p522
sI524
S'howarduniversity'
p523
sI525
S'howcool'
p524
sI526
S'hqconsulting'
p525
sI527
S'hrva'
p526
sI528
S'hu'
p527
sI529
S'huffpost'
p528
sI530
S'humanrights'
p529
sI531
S'humantrafficking'
p530
sI532
S'hypocrite'
p531
sI533
S'hypocrites'
p532
sI534
S'iaedchat'
p533
sI535
S'iaedfuture'
p534
sI536
S'iamawake'
p535
sI537
S'iammikebrown'
p536
sI538
S'icantbreathe'
p537
sI539
S'icebucketchallenge'
p538
sI540
S'icelandicvolcano'
p539
sI541
S'icymi'
p540
sI542
S'id'
p541
sI543
S'idiocracy'
p542
sI544
S'idiots'
p543
sI545
S'idwp'
p544
sI546
S'iftheygunnedmedown'
p545
sI547
S'ig'
p546
sI548
S'iknowsbetter'
p547
sI549
S'ikybrownus'
p548
sI550
S'illegals'
p549
sI551
S'iluvrap'
p550
sI552
S'immigration'
p551
sI553
S'immune'
p552
sI554
S'important'
p553
sI555
S'imsoconfused'
p554
sI556
S'inbbound'
p555
sI557
S'indianapolis'
p556
sI558
S'indictdarrenwilson'
p557
sI559
S'indy'
p558
sI560
S'indyref'
p559
sI561
S'inept'
p560
sI562
S'inequality'
p561
sI563
S'inews9k'
p562
sI564
S'inflammatory'
p563
sI565
S'infographic'
p564
sI566
S'infosec'
p565
sI567
S'infowars'
p566
sI568
S'ing'
p567
sI569
S'injustice'
p568
sI570
S'inked'
p569
sI571
S'inm'
p570
sI572
S'inners'
p571
sI573
S'innocent'
p572
sI574
S'insurance'
p573
sI575
S'interesting'
p574
sI576
S'internacional'
p575
sI577
S'internacionales24'
p576
sI578
S'internet'
p577
sI579
S'ipad'
p578
sI580
S'ipadg'
p579
sI581
S'iphone'
p580
sI582
S'iraq'
p581
sI583
S'ire14'
p582
sI584
S'irony'
p583
sI585
S'irs'
p584
sI586
S'isis'
p585
sI587
S'ismellacoverup'
p586
sI588
S'ispeakoutbecause'
p587
sI589
S'israel'
p588
sI590
S'israelunderfire'
p589
sI591
S'istandwithferguson'
p590
sI592
S'istandwithobama'
p591
sI593
S'istillbelievegod'
p592
sI594
S'itsbiggerthanyo'
p593
sI595
S'itsbiggerthanyou'
p594
sI596
S'ivanberroa'
p595
sI597
S'jacksonville'
p596
sI598
S'jailkillercops'
p597
sI599
S'jamesalexandergordon'
p598
sI600
S'japan'
p599
sI601
S'jasonbentley'
p600
sI602
S'jax'
p601
sI603
S'jayz'
p602
sI604
S'jesse'
p603
sI605
S'jesus'
p604
sI606
S'jewsforpalestine'
p605
sI607
S'jhonsonfresz'
p606
sI608
S'jjgo'
p607
sI609
S'jobs'
p608
sI610
S'jobsila'
p609
sI611
S'johncrawford'
p610
sI612
S'johnle'
p611
sI613
S'josedaviid13'
p612
sI614
S'journalist'
p613
sI615
S'journalists'
p614
sI616
S'journarrest'
p615
sI617
S'jp86'
p616
sI618
S'judgedredd'
p617
sI619
S'judgement'
p618
sI620
S'juniororteqa'
p619
sI621
S'jurno'
p620
sI622
S'jurnos'
p621
sI623
S'justice'
p622
sI624
S'justice4kyam'
p623
sI625
S'justice4michaelbrown'
p624
sI626
S'justice4mikebrown'
p625
sI627
S'justiceforall'
p626
sI628
S'justicefordonlemon'
p627
sI629
S'justiceformichael'
p628
sI630
S'justiceformichaelbrown'
p629
sI631
S'justiceformike'
p630
sI632
S'justiceformikebrown'
p631
sI633
S'justicefortrayvon'
p632
sI634
S'justicemikebrown'
p633
sI635
S'justiceorjustus'
p634
sI636
S'justicestill'
p635
sI637
S'justicformikebrown'
p636
sI638
S'justlive'
p637
sI639
S'justlivingtheirregularlife'
p638
sI640
S'justthefacts'
p639
sI641
S'justwondering'
p640
sI642
S'jutsticeforericgarner'
p641
sI643
S'karma'
p642
sI644
S'kellythomas'
p643
sI645
S'kentstate'
p644
sI646
S'kids'
p645
sI647
S'killercop'
p646
sI648
S'killingus'
p647
sI649
S'kindle'
p648
sI650
S'kkk'
p649
sI651
S'kmov'
p650
sI652
S'knockout'
p651
sI653
S'knowyourpolicedepartment'
p652
sI654
S'knowyourrights'
p653
sI655
S'kony2012'
p654
sI656
S'krbe'
p655
sI657
S'ksdk'
p656
sI658
S'kxly'
p657
sI659
S'ky'
p658
sI660
S'la'
p659
sI661
S'lafalacia_'
p660
sI662
S'lafoto'
p661
sI663
S'lamafiaverde'
p662
sI664
S'laparaladamonosotro'
p663
sI665
S'lapd'
p664
sI666
S'laprotest'
p665
sI667
S'lastweektonight'
p666
sI668
S'lastwords'
p667
sI669
S'latinos'
p668
sI670
S'lavrov'
p669
sI671
S'lawlesscretins'
p670
sI672
S'lbgt'
p671
sI673
S'lcfc'
p672
sI674
S'lds'
p673
sI675
S'leadership'
p674
sI676
S'learnmore'
p675
sI677
S'legende'
p676
sI678
S'lesm'
p677
sI679
S'letsalldobetter'
p678
sI680
S'lhhatl'
p679
sI681
S'liar'
p680
sI682
S'liars'
p681
sI683
S'libcrib'
p682
sI684
S'liberal'
p683
sI685
S'libertarian'
p684
sI686
S'lies'
p685
sI687
S'lifeless'
p686
sI688
S'live'
p687
sI689
S'livefree'
p688
sI690
S'livestream'
p689
sI691
S'lnyhbt'
p690
sI692
S'local4'
p691
sI693
S'lol'
p692
sI694
S'longwalk'
p693
sI695
S'lookouthesgotagun'
p694
sI696
S'looters'
p695
sI697
S'looting'
p696
sI698
S'lord'
p697
sI699
S'lordhavemercy'
p698
sI700
S'losangeles'
p699
sI701
S'losdelsonido'
p700
sI702
S'losers'
p701
sI703
S'losminidelsonido'
p702
sI704
S'love'
p703
sI705
S'lozteletobiiz'
p704
sI706
S'lrt'
p705
sI707
S'luiis_3x'
p706
sI708
S'luisito2402'
p707
sI709
S'luispokel'
p708
sI710
S'lulz'
p709
sI711
S'lvg'
p710
sI712
S'lying'
p711
sI713
S'maddow'
p712
sI714
S'magicbulletbyke'
p713
sI715
S'makesnosense'
p714
sI716
S'makinahd'
p715
sI717
S'manoduraalcontrabando'
p716
sI718
S'marchformikebrown'
p717
sI719
S'marijuana'
p718
sI720
S'marines'
p719
sI721
S'marshalllaw'
p720
sI722
S'marshals'
p721
sI723
S'martiallaw'
p722
sI724
S'martinniemxf6ller'
p723
sI725
S'mb'
p724
sI726
S'mbgc'
p725
sI727
S'mcso'
p726
sI728
S'media'
p727
sI729
S'mediabias'
p728
sI730
S'mediablackout'
p729
sI731
S'memphis'
p730
sI732
S'mepolitics'
p731
sI733
S'mfs'
p732
sI734
S'mhp'
p733
sI735
S'michael'
p734
sI736
S'michaelbrown'
p735
sI737
S'michaelbrownjustice'
p736
sI738
S'michaelbrownshooting'
p737
sI739
S'michaelcantknow'
p738
sI740
S'michaeldunn'
p739
sI741
S'michaelmoore'
p740
sI742
S'michealbrown'
p741
sI743
S'michigan'
p742
sI744
S'mikebrown'
p743
sI745
S'mikebrownnola'
p744
sI746
S'mikebrownrally'
p745
sI747
S'mikeferguson'
p746
sI748
S'mikewilson'
p747
sI749
S'militantpolice'
p748
sI750
S'militarization'
p749
sI751
S'militarizationofpolice'
p750
sI752
S'militarizedpolice'
p751
sI753
S'military'
p752
sI754
S'military_surplus'
p753
sI755
S'mine'
p754
sI756
S'missourah'
p755
sI757
S'missouri'
p756
sI758
S'misspelled'
p757
sI759
S'mklissoproud'
p758
sI760
S'mlk'
p759
sI761
S'mo'
p760
sI762
S'mogov'
p761
sI763
S'moleg'
p762
sI764
S'molonlabe'
p763
sI765
S'mom'
p764
sI766
S'money'
p765
sI767
S'montanatv'
p766
sI768
S'montreal'
p767
sI769
S'morehouse'
p768
sI770
S'morehouse18'
p769
sI771
S'morethanamoral'
p770
sI772
S'morevideomoreeyes'
p771
sI773
S'morningjoe'
p772
sI774
S'morningreads'
p773
sI775
S'msm'
p774
sI776
S'msnbc'
p775
sI777
S'mtpol'
p776
sI778
S'mtvhottest'
p777
sI779
S'muckreads'
p778
sI780
S'mufc'
p779
sI781
S'mugshots'
p780
sI782
S'mumiaab'
p781
sI783
S'mundinews'
p782
sI784
S'murder'
p783
sI785
S'murderfree'
p784
sI786
S'murica'
p785
sI787
S'music'
p786
sI788
S'musicevents'
p787
sI789
S'myawhite'
p788
sI790
S'mybrotherskeeper'
p789
sI791
S'myfergusonpd'
p790
sI792
S'mygod'
p791
sI793
S'naacp'
p792
sI794
S'naacpyc'
p793
sI795
S'nannystate'
p794
sI796
S'natgat2014'
p795
sI797
S'natguardwatch'
p796
sI798
S'national'
p797
sI799
S'nationalguard'
p798
sI800
S'nato'
p799
sI801
S'nbcnews'
p800
sI802
S'ncat'
p801
sI803
S'ncat18'
p802
sI804
S'ndaa'
p803
sI805
S'nederland'
p804
sI806
S'negroes'
p805
sI807
S'neilyoung'
p806
sI808
S'nelly'
p807
sI809
S'nervedjs'
p808
sI810
S'netneutrality'
p809
sI811
S'neveragain'
p810
sI812
S'neverforget'
p811
sI813
S'new'
p812
sI814
S'newblackpanthers'
p813
sI815
S'newday'
p814
sI816
S'news'
p815
sI817
S'news19'
p816
sI818
S'newsflash'
p817
sI819
S'newsnight'
p818
sI820
S'newsone'
p819
sI821
S'newsonenow'
p820
sI822
S'newyork'
p821
sI823
S'newzealand'
p822
sI824
S'nh'
p823
sI825
S'nhpolitics'
p824
sI826
S'nhv'
p825
sI827
S'nigeriahiddenwar'
p826
sI828
S'niggering'
p827
sI829
S'nixon'
p828
sI830
S'nmos'
p829
sI831
S'nmos14'
p830
sI832
S'nmos14atl'
p831
sI833
S'nochange'
p832
sI834
S'nocompromise'
p833
sI835
S'nohope'
p834
sI836
S'nojustice'
p835
sI837
S'nojusticenopeace'
p836
sI838
S'nojustuce'
p837
sI839
S'nook'
p838
sI840
S'noonecares'
p839
sI841
S'nopeace'
p840
sI842
S'nopeacenojustice'
p841
sI843
S'noproblem'
p842
sI844
S'noprofessionalism'
p843
sI845
S'notallcops'
p844
sI846
S'notallwomen'
p845
sI847
S'notonemore'
p846
sI848
S'nottheonion'
p847
sI849
S'nowplaying'
p848
sI850
S'np'
p849
sI851
S'nra'
p850
sI852
S'nrx'
p851
sI853
S'nsa'
p852
sI854
S'nspoli'
p853
sI855
S'nwo'
p854
sI856
S'nwtfire'
p855
sI857
S'nyc'
p856
sI858
S'nycpd'
p857
sI859
S'nypd'
p858
sI860
S'nytimes'
p859
sI861
S'nytomo'
p860
sI862
S'nz'
p861
sI863
S'oakland'
p862
sI864
S'obama'
p863
sI865
S'obamaparrotslies'
p864
sI866
S'obvious'
p865
sI867
S'occupy'
p866
sI868
S'occupyferguson'
p867
sI869
S'occupyhq'
p868
sI870
S'occupyoakland'
p869
sI871
S'occupywallstreet'
p870
sI872
S'ocra'
p871
sI873
S'odavelymusic'
p872
sI874
S'officer'
p873
sI875
S'officerdarrenwilson'
p874
sI876
S'ogt'
p875
sI877
S'ohok'
p876
sI878
S'oip'
p877
sI879
S'ok'
p878
sI880
S'okay'
p879
sI881
S'okc'
p880
sI882
S'oliver'
p881
sI883
S'olle_jeffry'
p882
sI884
S'omg'
p883
sI885
S'onenation'
p884
sI886
S'online'
p885
sI887
S'ontoday'
p886
sI888
S'opaque'
p887
sI889
S'opencarry'
p888
sI890
S'operationhelporhush'
p889
sI891
S'opferguson'
p890
sI892
S'oppressed'
p891
sI893
S'oppressionliveson'
p892
sI894
S'opps'
p893
sI895
S'orca'
p894
sI896
S'order'
p895
sI897
S'oscargrant'
p896
sI898
S'ourgaza'
p897
sI899
S'ourstrugglesareone'
p898
sI900
S'outfront'
p899
sI901
S'ows'
p900
sI902
S'p2'
p901
sI903
S'paidforcigars'
p902
sI904
S'paidnetworking'
p903
sI905
S'palestina'
p904
sI906
S'palestine'
p905
sI907
S'palestinians'
p906
sI908
S'pantsupdontloot'
p907
sI909
S'parenting'
p908
sI910
S'paris'
p909
sI911
S'partest'
p910
sI912
S'payattention'
p911
sI913
S'pdchief'
p912
sI914
S'pdx'
p913
sI915
S'peace'
p914
sI916
S'peacefulprotest'
p915
sI917
S'peaceinferguson'
p916
sI918
S'peaceonthestreets'
p917
sI919
S'peacerally'
p918
sI920
S'peopleberacist'
p919
sI921
S'peopleoverpolitics'
p920
sI922
S'peoplepower'
p921
sI923
S'period'
p922
sI924
S'peruenlanoticia'
p923
sI925
S'photography'
p924
sI926
S'pinkpantherparty'
p925
sI927
S'pjnet'
p926
sI928
S'plaea'
p927
sI929
S'plantation'
p928
sI930
S'poilce'
p929
sI931
S'police'
p930
sI932
S'policeagression'
p931
sI933
S'policebrutality'
p932
sI934
S'policechief'
p933
sI935
S'policechiefthomasjackson'
p934
sI936
S'policeofficer'
p935
sI937
S'policereform'
p936
sI938
S'policestate'
p937
sI939
S'policestateusa'
p938
sI940
S'policethepolice'
p939
sI941
S'policeyourself'
p940
sI942
S'policing101'
p941
sI943
S'political'
p942
sI944
S'politicalcraps'
p943
sI945
S'politicalprisoners'
p944
sI946
S'politics'
p945
sI947
S'politicsnation'
p946
sI948
S'possecomitatus'
p947
sI949
S'postracialamerica'
p948
sI950
S'pot'
p949
sI951
S'potus'
p950
sI952
S'power'
p951
sI953
S'powerfulimage'
p952
sI954
S'powertothepeople'
p953
sI955
S'pr'
p954
sI956
S'prayersforferguson'
p955
sI957
S'prayforferguson'
p956
sI958
S'preppers'
p957
sI959
S'preppertalk'
p958
sI960
S'pressfreedom'
p959
sI961
S'presstvgaza'
p960
sI962
S'princetonu'
p961
sI963
S'priorities'
p962
sI964
S'privilege'
p963
sI965
S'prochoice'
p964
sI966
S'propaganda'
p965
sI967
S'protest'
p966
sI968
S'protesters'
p967
sI969
S'protestispatriotic'
p968
sI970
S'protests'
p969
sI971
S'proud'
p970
sI972
S'prt'
p971
sI973
S'ps'
p972
sI974
S'psa'
p973
sI975
S'puebla'
p974
sI976
S'purpleandchrome'
p975
sI977
S'purpose'
p976
sI978
S'q13fox'
p977
sI979
S'quagmire'
p978
sI980
S'question'
p979
sI981
S'race'
p980
sI982
S'race101'
p981
sI983
S'racebaiters'
p982
sI984
S'racecard'
p983
sI985
S'racialdivide'
p984
sI986
S'racism'
p985
sI987
S'racisme'
p986
sI988
S'racisminamerica'
p987
sI989
S'racismneverend'
p988
sI990
S'racist2014'
p989
sI991
S'racists'
p990
sI992
S'radiowisdom'
p991
sI993
S'rainbowuprising'
p992
sI994
S'rallyforferguson'
p993
sI995
S'rap'
p994
sI996
S'rapwave'
p995
sI997
S'raw'
p996
sI998
S'raymiifernandezznot'
p997
sI999
S'reachin'
p998
sI1000
S'reagan'
p999
sI1001
S'real_linoe'
p1000
sI1002
S'realconcerns'
p1001
sI1003
S'realtalk'
p1002
sI1004
S'reblop'
p1003
sI1005
S'rednationrising'
p1004
sI1006
S'regulatepolice'
p1005
sI1007
S'related'
p1006
sI1008
S'release'
p1007
sI1009
S'releasethetape'
p1008
sI1010
S'renaissanceman'
p1009
sI1011
S'reporters'
p1010
sI1012
S'repost'
p1011
sI1013
S'reprojustice'
p1012
sI1014
S'repubblicaditavecchio'
p1013
sI1015
S'republicans'
p1014
sI1016
S'resign'
p1015
sI1017
S'resist'
p1016
sI1018
S'respect'
p1017
sI1019
S'retweet'
p1018
sI1020
S'retweetthat'
p1019
sI1021
S'revolution'
p1020
sI1022
S'rex84'
p1021
sI1023
S'right2rebel'
p1022
sI1024
S'rightnow'
p1023
sI1025
S'rights'
p1024
sI1026
S'righttorecord'
p1025
sI1027
S'riot'
p1026
sI1028
S'rip'
p1027
sI1029
S'ripericgarner'
p1028
sI1030
S'ripmichaelbrown'
p1029
sI1031
S'ripmikebrown'
p1030
sI1032
S'ripmikemike'
p1031
sI1033
S'riposcargrant'
p1032
sI1034
S'riptrayvonmartin'
p1033
sI1035
S'robbery'
p1034
sI1036
S'robbing'
p1035
sI1037
S'robinwilliams'
p1036
sI1038
S'ronjohnson'
p1037
sI1039
S'ronpaul'
p1038
sI1040
S'rp'
p1039
sI1041
S'rt'
p1040
sI1042
S'rushtojudgement'
p1041
sI1043
S'russia'
p1042
sI1044
S'rwnjalert'
p1043
sI1045
S'sad'
p1044
sI1046
S'safety4media'
p1045
sI1047
S'salingfollow'
p1046
sI1048
S'sanantonio'
p1047
sI1049
S'sanfrancisco'
p1048
sI1050
S'sanjose'
p1049
sI1051
S'santafe'
p1050
sI1052
S'savageanimals'
p1051
sI1053
S'saverrepublic'
p1052
sI1054
S'sayfie'
p1053
sI1055
S'sc'
p1054
sI1056
S'science'
p1055
sI1057
S'scnews'
p1056
sI1058
S'scottolsen'
p1057
sI1059
S'scottolson'
p1058
sI1060
S'scotus'
p1059
sI1061
S'sctweets'
p1060
sI1062
S'scumbags'
p1061
sI1063
S'secondamendment'
p1062
sI1064
S'seinfeld'
p1063
sI1065
S'selfdefense'
p1064
sI1066
S'selfie'
p1065
sI1067
S'senseless'
p1066
sI1068
S'seo'
p1067
sI1069
S'sf'
p1068
sI1070
S'sgf'
p1069
sI1071
S'sgp'
p1070
sI1072
S'shakeitoff'
p1071
sI1073
S'shame'
p1072
sI1074
S'shameful'
p1073
sI1075
S'sharedvalues'
p1074
sI1076
S'sharpton'
p1075
sI1077
S'shinyobject'
p1076
sI1078
S'shitobamaprobablysays'
p1077
sI1079
S'sholedont'
p1078
sI1080
S'shooting'
p1079
sI1081
S'shootum'
p1080
sI1082
S'shoplifting'
p1081
sI1083
S'shot'
p1082
sI1084
S'shottycoverup'
p1083
sI1085
S'showthedamnvideo'
p1084
sI1086
S'shtfjournal'
p1085
sI1087
S'signalboost'
p1086
sI1088
S'signed'
p1087
sI1089
S'silenceislouderthanscreams'
p1088
sI1090
S'silicondesert'
p1089
sI1091
S'sisterpatriots'
p1090
sI1092
S'siyofuerat'
p1091
sI1093
S'sju'
p1092
sI1094
S'sju18'
p1093
sI1095
S'sjuorientation'
p1094
sI1096
S'smalltownvalues'
p1095
sI1097
S'smatterings'
p1096
sI1098
S'smdh'
p1097
sI1099
S'smear'
p1098
sI1100
S'smearcampaign'
p1099
sI1101
S'smh'
p1100
sI1102
S'smm'
p1101
sI1103
S'snowden'
p1102
sI1104
S'sobeautiful'
p1103
sI1105
S'socialmedia'
p1104
sI1106
S'socialshakeup'
p1105
sI1107
S'sociology'
p1106
sI1108
S'solidarity'
p1107
sI1109
S'soma'
p1108
sI1110
S'sonsandbrothers'
p1109
sI1111
S'sorrynotsorry'
p1110
sI1112
S'sosad'
p1111
sI1113
S'sosferguson'
p1112
sI1114
S'soundcloud'
p1113
sI1115
S'speakout'
p1114
sI1116
S'specialreport'
p1115
sI1117
S'spelman18'
p1116
sI1118
S'spirituality'
p1117
sI1119
S'spreadtheword'
p1118
sI1120
S'srilanka'
p1119
sI1121
S'sschat'
p1120
sI1122
S'standup'
p1121
sI1123
S'standwithferguson'
p1122
sI1124
S'stateofemergency'
p1123
sI1125
S'stayinformed'
p1124
sI1126
S'staypeaceful'
p1125
sI1127
S'staywoke'
p1126
sI1128
S'stepdown'
p1127
sI1129
S'stl'
p1128
sI1130
S'stlouis'
p1129
sI1131
S'stlouiscountypolice'
p1130
sI1132
S'stlouiswegotyo'
p1131
sI1133
S'stlstrong'
p1132
sI1134
S'stop'
p1133
sI1135
S'stopandfrish'
p1134
sI1136
S'stoparmingisrael'
p1135
sI1137
S'stopplantingideas'
p1136
sI1138
S'stoppolicebrutality'
p1137
sI1139
S'stopracebating'
p1138
sI1140
S'stopracialprofiling'
p1139
sI1141
S'stoprush'
p1140
sI1142
S'stoptherhetoric'
p1141
sI1143
S'stoptheviolence'
p1142
sI1144
S'stopwhitepeople2014'
p1143
sI1145
S'streetjustice'
p1144
sI1146
S'strelkov'
p1145
sI1147
S'stribpol'
p1146
sI1148
S'strong'
p1147
sI1149
S'strongarm'
p1148
sI1150
S'strongarmedrobbery'
p1149
sI1151
S'structuralracism'
p1150
sI1152
S'struggleofbeingablackman'
p1151
sI1153
S'students'
p1152
sI1154
S'subterfuge'
p1153
sI1155
S'sueleymanseba'
p1154
sI1156
S'sundown'
p1155
sI1157
S'sunoviaaquxed'
p1156
sI1158
S'supd'
p1157
sI1159
S'supportfergusonbusinesses'
p1158
sI1160
S'supremacyisnteverything'
p1159
sI1161
S'sustainability'
p1160
sI1162
S'swat'
p1161
sI1163
S'swishersweets'
p1162
sI1164
S'syria'
p1163
sI1165
S'takebackamerica'
p1164
sI1166
S'takemehome'
p1165
sI1167
S'taser'
p1166
sI1168
S'taxpayers'
p1167
sI1169
S'taylorswift'
p1168
sI1170
S'tcot'
p1169
sI1171
S'teamdl'
p1170
sI1172
S'teamyamita'
p1171
sI1173
S'teamye'
p1172
sI1174
S'teaparty'
p1173
sI1175
S'teargas'
p1174
sI1176
S'tearthismuddufuckaup'
p1175
sI1177
S'tech'
p1176
sI1178
S'technews'
p1177
sI1179
S'teenager'
p1178
sI1180
S'tellthetruth'
p1179
sI1181
S'tfb'
p1180
sI1182
S'tgdn'
p1181
sI1183
S'tgif'
p1182
sI1184
S'thailand'
p1183
sI1185
S'thankgod'
p1184
sI1186
S'thatawesomemoment'
p1185
sI1187
S'thatawkwardmoment'
p1186
sI1188
S'theblacklist'
p1187
sI1189
S'thebrointheblueshirt'
p1188
sI1190
S'thefive'
p1189
sI1191
S'theguardian'
p1190
sI1192
S'thelead'
p1191
sI1193
S'themoreyouknow'
p1192
sI1194
S'thename'
p1193
sI1195
S'theneeds'
p1194
sI1196
S'thepanel'
p1195
sI1197
S'theverge'
p1196
sI1198
S'thewaterisnotclean'
p1197
sI1199
S'theweek'
p1198
sI1200
S'thewholeworldiswatching'
p1199
sI1201
S'thewire'
p1200
sI1202
S'theworldiswatching'
p1201
sI1203
S'theydidthistothemselves'
p1202
sI1204
S'theydontreallycareaboutus'
p1203
sI1205
S'thisisactivism'
p1204
sI1206
S'thispicturesayssomuch'
p1205
sI1207
S'threatening'
p1206
sI1208
S'throwbackthursday'
p1207
sI1209
S'thug'
p1208
sI1210
S'thugs'
p1209
sI1211
S'tibetan'
p1210
sI1212
S'tinypoems'
p1211
sI1213
S'tjms'
p1212
sI1214
S'tlot'
p1213
sI1215
S'tma'
p1214
sI1216
S'today'
p1215
sI1217
S'tokyo'
p1216
sI1218
S'tonight'
p1217
sI1219
S'topnews'
p1218
sI1220
S'tougaloo'
p1219
sI1221
S'toxicology'
p1220
sI1222
S'tpnn'
p1221
sI1223
S'tpp'
p1222
sI1224
S'tragedy'
p1223
sI1225
S'trainisneverlate'
p1224
sI1226
S'transparency'
p1225
sI1227
S'travonmartin'
p1226
sI1228
S'trayvon'
p1227
sI1229
S'trayvonmartin'
p1228
sI1230
S'trews'
p1229
sI1231
S'tribbits'
p1230
sI1232
S'tribunelibre'
p1231
sI1233
S'triggerhappy'
p1232
sI1234
S'trill'
p1233
sI1235
S'trndnl'
p1234
sI1236
S'truth'
p1235
sI1237
S'truthjuice'
p1236
sI1238
S'tt'
p1237
sI1239
S'tu'
p1238
sI1240
S'tucsontoday'
p1239
sI1241
S'turtleisland'
p1240
sI1242
S'twisters'
p1241
sI1243
S'twitter'
p1242
sI1244
S'tyonews'
p1243
sI1245
S'tytlive'
p1244
sI1246
S'u062du0644u0628'
p1245
sI1247
S'u062du0645u0635'
p1246
sI1248
S'u0633u0648u0631u064au0627'
p1247
sI1249
S'u3075u3093u3069u3057u306eu5de8u4eba'
p1248
sI1250
S'ucla'
p1249
sI1251
S'ucwradio'
p1250
sI1252
S'udi'
p1251
sI1253
S'ugh'
p1252
sI1254
S'uk'
p1253
sI1255
S'ukraine'
p1254
sI1256
S'ultimas'
p1255
sI1257
S'ump'
p1256
sI1258
S'unarmed'
p1257
sI1259
S'unarmedblackteen'
p1258
sI1260
S'uncg'
p1259
sI1261
S'union'
p1260
sI1262
S'uniteblue'
p1261
sI1263
S'united'
p1262
sI1264
S'unitedwestand'
p1263
sI1265
S'unity'
p1264
sI1266
S'universityofkentucky'
p1265
sI1267
S'universityoftexas'
p1266
sI1268
S'us'
p1267
sI1269
S'us_news'
p1268
sI1270
S'usa'
p1269
sI1271
S'usenet'
p1270
sI1272
S'usf'
p1271
sI1273
S'uspoli'
p1272
sI1274
S'usrevolution'
p1273
sI1275
S'vebirguengelecek'
p1274
sI1276
S'venezuela'
p1275
sI1277
S'vets'
p1276
sI1278
S'vibeinferguson'
p1277
sI1279
S'vibetownhall'
p1278
sI1280
S'victim'
p1279
sI1281
S'video'
p1280
sI1282
S'violated'
p1281
sI1283
S'violence'
p1282
sI1284
S'violenceincites'
p1283
sI1285
S'virginia'
p1284
sI1286
S'vote'
p1285
sI1287
S'voteyes'
p1286
sI1288
S'wagner_kc'
p1287
sI1289
S'wakeup'
p1288
sI1290
S'wap'
p1289
sI1291
S'warcrimes'
p1290
sI1292
S'waronwhites'
p1291
sI1293
S'warzone'
p1292
sI1294
S'washington'
p1293
sI1295
S'watchingjamesbrown'
p1294
sI1296
S'wbai'
p1295
sI1297
S'we'
p1296
sI1298
S'wearelegion'
p1297
sI1299
S'wearemikebrown'
p1298
sI1300
S'wearepromotion'
p1299
sI1301
S'wearetargets'
p1300
sI1302
S'website'
p1301
sI1303
S'weekend'
p1302
sI1304
S'wegotyousis'
p1303
sI1305
S'weiipepo'
p1304
sI1306
S'weneedthatverdict'
p1305
sI1307
S'wesupport'
p1306
sI1308
S'wethepeople'
p1307
sI1309
S'wewantthetruth'
p1308
sI1310
S'wftv'
p1309
sI1311
S'whatdaell'
p1310
sI1312
S'whereisdarrenwilson'
p1311
sI1313
S'whereisthelove'
p1312
sI1314
S'whitehouse'
p1313
sI1315
S'whiteprivilege'
p1314
sI1316
S'whites'
p1315
sI1317
S'whiteshameday'
p1316
sI1318
S'whitesupremacists'
p1317
sI1319
S'whitesupremacy'
p1318
sI1320
S'whokilledmikebrown'
p1319
sI1321
S'whurnews'
p1320
sI1322
S'whydarrenwilsonwhy'
p1321
sI1323
S'wilson'
p1322
sI1324
S'wiunion'
p1323
sI1325
S'wolfmovement'
p1324
sI1326
S'woodwardbernstein'
p1325
sI1327
S'workbootprejudice'
p1326
sI1328
S'world'
p1327
sI1329
S'worldnews'
p1328
sI1330
S'worldrssfeeds'
p1329
sI1331
S'wow'
p1330
sI1332
S'wral'
p1331
sI1333
S'wrong'
p1332
sI1334
S'wsbtv'
p1333
sI1335
S'wshhfamous'
p1334
sI1336
S'wshhvine'
p1335
sI1337
S'wsjaudio'
p1336
sI1338
S'wtf'
p1337
sI1339
S'wth'
p1338
sI1340
S'xavier'
p1339
sI1341
S'yaf'
p1340
sI1342
S'yale'
p1341
sI1343
S'yayicamacho'
p1342
sI1344
S'yeremiito21'
p1343
sI1345
S'yesallwomen'
p1344
sI1346
S'yourlifematters'
p1345
sI1347
S'youtube'
p1346
sI1348
S'yup'
p1347
sI1349
S'yyyoooddduuurrrrtttyyyy'
p1348
sI1350
S'zimmerman'
p1349
sI1351
S'zionist'
p1350
sI1352
S'zipemup'
p1351
s.