ccollections
Counter
p1
((dp2
I0
I1
sI8876
I9
sI8204
I1
sI12302
I1
sI4114
I1
sI8211
I2
sI4116
I3
sI24603
I1
sI29
I5
sI8232
I1
sI28715
I1
sI28716
I1
sI28723
I19
sI28731
I3
sI4158
I2
sI24640
I2
sI28740
I1
sI16453
I1
sI28743
I2
sI4168
I1
sI16457
I2
sI16459
I3
sI28748
I1
sI77
I1
sI16465
I12
sI16468
I1
sI24661
I1
sI23225
I4
sI24665
I1
sI12381
I1
sI12386
I1
sI28773
I1
sI32872
I2
sI105
I1
sI108
I66
sI12989
I1
sI20592
I2
sI24690
I1
sI12404
I1
sI15038
I1
sI16506
I1
sI24699
I1
sI8320
I2
sI21867
I2
sI12420
I1
sI28805
I2
sI8331
I1
sI24721
I8
sI8338
I1
sI4244
I1
sI8347
I2
sI8350
I4
sI159
I1
sI4256
I1
sI4259
I1
sI164
I4
sI4261
I1
sI23921
I1
sI14364
I3
sI16554
I1
sI33480
I1
sI32950
I1
sI10271
I1
sI16582
I1
sI12493
I1
sI17784
I6
sI24786
I2
sI24787
I1
sI12502
I1
sI21199
I1
sI20701
I2
sI32990
I6
sI26662
I1
sI28903
I1
sI232
I1
sI33004
I1
sI28911
I12
sI33008
I1
sI28913
I1
sI30171
I1
sI8438
I1
sI33015
I1
sI8916
I2
sI28923
I2
sI20732
I2
sI255
I1
sI28930
I1
sI21206
I1
sI20743
I6
sI24840
I3
sI20745
I2
sI20754
I1
sI4371
I6
sI33047
I2
sI8922
I2
sI24863
I2
sI28960
I2
sI28961
I1
sI12580
I1
sI11404
I2
sI6194
I1
sI12591
I1
sI16695
I5
sI8507
I1
sI8508
I2
sI33092
I1
sI16709
I2
sI332
I1
sI738
I1
sI336
I1
sI20817
I1
sI342
I1
sI343
I1
sI20824
I1
sI20831
I12
sI24635
I2
sI16740
I2
sI24935
I1
sI4456
I2
sI8553
I14
sI8555
I5
sI20845
I1
sI24942
I2
sI24947
I1
sI29048
I1
sI12665
I1
sI20859
I3
sI4476
I2
sI20864
I1
sI20866
I2
sI20867
I1
sI19862
I1
sI29064
I1
sI12688
I1
sI20881
I1
sI24978
I1
sI8601
I1
sI4507
I5
sI9626
I1
sI16800
I4
sI419
I1
sI16807
I1
sI20908
I29
sI12717
I2
sI432
I1
sI434
I1
sI8632
I1
sI4539
I1
sI25020
I1
sI29121
I4
sI453
I1
sI20938
I2
sI16843
I1
sI25037
I8
sI4559
I1
sI25043
I22
sI25046
I1
sI33239
I3
sI29149
I1
sI4574
I1
sI17147
I1
sI12776
I1
sI21244
I1
sI25069
I1
sI4591
I2
sI16880
I1
sI32852
I1
sI4602
I1
sI33275
I1
sI21930
I1
sI30805
I1
sI512
I1
sI4610
I1
sI4611
I1
sI16901
I2
sI518
I1
sI519
I10
sI521
I1
sI522
I3
sI29197
I4
sI21007
I2
sI8720
I1
sI16916
I1
sI16921
I1
sI12829
I1
sI542
I2
sI12831
I1
sI21026
I3
sI4645
I3
sI16934
I1
sI16936
I1
sI29227
I1
sI25133
I2
sI25134
I1
sI21039
I2
sI561
I1
sI21042
I2
sI4659
I1
sI29238
I1
sI16951
I1
sI16955
I7
sI16956
I1
sI16960
I2
sI21057
I2
sI25154
I4
sI4675
I1
sI592
I6
sI21073
I2
sI9567
I67
sI12883
I1
sI33365
I4
sI21079
I3
sI12890
I3
sI4701
I1
sI606
I1
sI12389
I9
sI21088
I1
sI13755
I1
sI12903
I1
sI33385
I3
sI4716
I1
sI4720
I1
sI33395
I1
sI17012
I2
sI21110
I1
sI4727
I1
sI21114
I1
sI14442
I2
sI13078
I1
sI4748
I1
sI12942
I1
sI657
I1
sI4760
I1
sI25241
I2
sI25248
I1
sI1478
I1
sI4777
I1
sI33452
I1
sI114
I1
sI700
I1
sI8893
I1
sI8896
I1
sI708
I1
sI8903
I1
sI13000
I2
sI17099
I2
sI13007
I1
sI33489
I1
sI33491
I1
sI33492
I1
sI25301
I2
sI33494
I1
sI21210
I1
sI33440
I1
sI8930
I1
sI33508
I2
sI29413
I1
sI8934
I3
sI25320
I3
sI29417
I1
sI29424
I4
sI33521
I1
sI4851
I2
sI29428
I2
sI17143
I1
sI763
I1
sI29436
I1
sI17151
I1
sI21249
I1
sI13058
I1
sI17160
I2
sI812
I4
sI29454
I1
sI21263
I1
sI29462
I1
sI4887
I1
sI794
I2
sI27439
I1
sI796
I1
sI798
I1
sI4896
I1
sI33569
I1
sI4899
I6
sI25383
I1
sI17194
I1
sI13100
I1
sI25391
I1
sI823
I1
sI21308
I1
sI9023
I1
sI18572
I1
sI4942
I1
sI847
I1
sI4945
I1
sI33619
I1
sI17240
I2
sI21340
I1
sI13149
I6
sI862
I1
sI33634
I2
sI13162
I1
sI25454
I1
sI9079
I1
sI889
I1
sI33659
I2
sI19946
I78
sI21379
I1
sI5001
I2
sI9100
I1
sI25490
I4
sI10393
I2
sI5016
I1
sI33692
I13
sI33701
I1
sI5032
I1
sI18588
I16
sI13227
I1
sI21420
I6
sI13229
I1
sI5040
I1
sI2206
I1
sI25526
I1
sI13239
I1
sI13240
I1
sI17341
I1
sI17354
I1
sI5067
I1
sI29644
I1
sI13266
I1
sI15182
I2
sI21466
I7
sI6991
I1
sI25565
I1
sI5086
I1
sI991
I2
sI21475
I57
sI5629
I1
sI25586
I1
sI25590
I1
sI5111
I1
sI29693
I1
sI25598
I2
sI5119
I1
sI33177
I1
sI5124
I1
sI1029
I1
sI1031
I3
sI29709
I5
sI13327
I2
sI1040
I1
sI29713
I1
sI21523
I1
sI6318
I2
sI9238
I1
sI22676
I1
sI29732
I1
sI17449
I1
sI13355
I2
sI5164
I1
sI25646
I1
sI9263
I1
sI21552
I1
sI21556
I1
sI29750
I1
sI5179
I2
sI13382
I1
sI13383
I1
sI25685
I1
sI1111
I4
sI1112
I1
sI13401
I1
sI1121
I4
sI9314
I1
sI9317
I10409
sI33898
I2
sI25708
I1
sI1133
I1
sI5234
I1
sI13428
I1
sI4266
I4
sI17536
I2
sI9350
I1
sI1159
I2
sI1160
I1
sI1559
I1
sI33933
I1
sI17497
I1
sI5274
I2
sI13467
I62
sI9375
I2
sI21180
I1
sI33957
I2
sI9382
I1
sI9383
I1
sI13480
I1
sI1194
I6
sI33969
I1
sI29874
I1
sI21687
I1
sI19316
I1
sI5306
I1
sI17597
I2
sI29886
I6
sI17599
I1
sI29888
I1
sI25793
I1
sI21699
I8
sI17605
I11
sI25801
I4
sI17617
I1
sI19545
I1
sI5335
I1
sI5337
I44
sI34011
I2
sI13532
I1
sI25821
I1
sI29920
I1
sI25825
I1
sI5346
I1
sI34023
I1
sI25956
I1
sI9451
I1
sI9452
I1
sI34029
I1
sI5363
I1
sI5365
I1
sI8362
I1
sI1273
I1
sI25851
I3
sI1278
I2
sI25855
I1
sI29953
I1
sI13409
I1
sI5386
I1
sI20638
I1
sI13589
I1
sI21782
I3
sI9500
I1
sI26842
I12
sI29984
I1
sI9505
I5
sI25893
I1
sI9515
I14
sI18653
I3
sI17712
I2
sI1330
I1
sI17715
I1
sI9525
I1
sI5433
I1
sI13878
I2
sI21831
I2
sI21833
I1
sI1354
I1
sI17975
I1
sI9551
I9
sI9552
I1
sI5459
I16
sI23641
I1
sI32313
I1
sI1369
I1
sI17755
I1
sI30044
I1
sI11834
I1
sI25951
I1
sI21856
I1
sI21859
I39
sI9572
I1
sI1384
I2
sI13675
I1
sI17775
I3
sI9584
I2
sI5491
I3
sI1397
I2
sI9592
I1
sI9593
I1
sI1402
I1
sI17787
I9
sI13692
I1
sI5505
I1
sI22763
I1
sI1415
I1
sI20716
I2
sI21898
I1
sI25996
I1
sI25998
I1
sI13713
I1
sI23643
I1
sI30100
I1
sI1430
I1
sI1432
I1
sI1434
I1
sI30122
I3
sI25417
I1
sI10414
I2
sI1456
I1
sI9650
I5
sI21940
I1
sI13749
I2
sI30136
I1
sI30138
I2
sI23455
I1
sI21949
I1
sI33014
I2
sI5574
I1
sI9672
I1
sI30157
I1
sI26063
I1
sI5587
I1
sI1494
I40
sI13785
I2
sI26075
I1
sI13789
I1
sI9696
I1
sI13795
I1
sI17893
I2
sI13800
I2
sI5609
I1
sI13804
I1
sI1517
I1
sI26095
I1
sI23237
I2
sI26099
I3
sI30196
I1
sI13814
I1
sI19369
I1
sI9725
I1
sI13823
I5
sI17923
I1
sI30215
I1
sI26126
I1
sI22032
I1
sI13841
I2
sI13845
I1
sI13847
I1
sI26142
I7
sI5664
I1
sI1576
I2
sI13865
I2
sI30250
I3
sI18013
I4
sI22064
I1
sI13873
I1
sI30258
I1
sI22070
I1
sI9783
I1
sI22077
I13
sI30270
I1
sI13887
I7
sI30273
I4
sI17986
I1
sI13891
I1
sI1604
I1
sI1608
I5
sI5047
I1
sI29580
I1
sI30288
I1
sI9144
I3
sI5720
I6
sI15641
I1
sI26205
I1
sI22111
I1
sI13557
I1
sI9829
I4
sI18025
I442
sI26220
I1
sI22125
I21
sI13245
I1
sI7784
I1
sI18034
I1
sI9844
I2
sI9846
I1
sI1641
I1
sI18708
I1
sI5756
I1
sI18046
I1
sI18048
I1
sI22148
I1
sI1670
I1
sI18055
I1
sI1644
I1
sI22151
I2
sI26253
I1
sI5776
I2
sI1682
I1
sI13973
I1
sI5782
I1
sI26268
I1
sI9888
I1
sI18081
I1
sI30374
I1
sI13992
I1
sI26284
I1
sI15986
I1
sI26286
I2
sI13999
I3
sI14002
I1
sI9907
I1
sI22197
I1
sI5814
I3
sI26297
I1
sI14011
I2
sI1724
I2
sI22209
I6
sI22210
I1
sI26307
I3
sI1734
I2
sI5833
I1
sI1738
I1
sI30411
I1
sI30417
I1
sI9940
I1
sI18041
I3
sI1752
I4
sI30425
I1
sI18140
I1502
sI5854
I1
sI26335
I1
sI22240
I1
sI1763
I4
sI1765
I1
sI1771
I1
sI26352
I1
sI18169
I1
sI5882
I2
sI22267
I1
sI18173
I2
sI14084
I2
sI14085
I1
sI14091
I1
sI5905
I1
sI10002
I1
sI14933
I1
sI18200
I1
sI14114
I15
sI10020
I1
sI26409
I3
sI14123
I3
sI1836
I1
sI17110
I1
sI10036
I1
sI18229
I2
sI5947
I1
sI18237
I1
sI18240
I3
sI14145
I4
sI18245
I5
sI26442
I1
sI18251
I1
sI18252
I1
sI10062
I1
sI5967
I14
sI5970
I1
sI5091
I1
sI608
I1
sI12747
I1
sI14176
I5
sI22371
I2
sI5988
I2
sI27614
I5
sI30354
I4
sI21204
I1
sI18069
I7
sI18304
I2
sI7147
I1
sI26500
I2
sI30600
I6
sI1428
I1
sI16023
I1
sI6028
I1
sI14223
I13
sI6035
I1
sI1943
I1
sI10136
I1
sI12749
I1
sI26527
I1
sI14244
I1
sI10153
I1
sI26538
I2
sI22443
I4
sI26540
I2
sI6063
I1
sI10704
I5
sI14262
I1
sI3060
I1
sI14267
I1
sI30660
I1
sI23389
I1
sI14286
I1
sI33101
I1
sI2000
I17
sI22481
I20
sI6101
I1
sI18390
I1
sI18391
I27
sI22492
I1
sI6111
I1
sI18726
I1
sI10212
I2
sI9751
I11
sI22510
I1
sI2031
I1
sI2036
I1
sI6134
I1
sI2039
I1
sI10233
I1
sI2046
I1
sI2053
I2
sI10247
I1
sI2060
I1
sI26642
I1
sI20142
I5
sI26969
I4
sI10264
I1
sI18460
I1
sI14365
I13
sI26655
I1
sI26659
I1
sI26661
I1
sI18470
I6
sI10284
I1
sI6192
I1
sI2097
I3
sI26674
I4
sI2101
I1
sI26679
I1
sI6204
I4
sI6210
I1
sI11958
I1
sI2124
I3
sI10317
I1
sI30803
I1
sI2133
I1
sI10333
I4
sI30815
I1
sI5136
I1
sI22626
I1
sI21521
I2
sI26730
I4
sI10354
I1
sI10355
I1
sI26740
I1
sI2165
I1
sI22651
I30
sI18556
I1
sI22659
I1
sI21526
I3
sI22668
I13
sI10381
I1
sI18576
I1
sI22675
I2
sI10388
I2
sI2201
I1
sI30876
I1
sI26782
I5
sI26795
I1
sI6317
I1
sI14510
I2
sI8563
I1
sI26808
I1
sI6330
I1
sI18619
I2
sI10429
I1
sI10431
I5
sI22721
I1
sI2242
I1
sI6339
I1
sI14532
I1
sI10437
I6
sI6352
I1
sI22739
I1
sI18645
I3
sI14554
I1
sI20175
I1
sI22749
I38
sI2270
I1
sI2275
I2
sI30948
I1
sI10473
I1
sI6379
I1
sI2287
I1
sI30960
I1
sI30962
I1
sI22771
I1
sI26870
I1
sI22777
I1
sI6395
I1
sI18684
I1
sI18685
I2
sI14591
I1
sI24960
I1
sI30983
I1
sI14600
I1
sI22793
I1
sI2315
I1
sI2316
I1
sI2317
I1
sI18703
I1
sI22802
I1
sI10516
I1
sI2325
I1
sI14614
I1
sI31002
I1
sI22811
I1
sI22816
I3
sI18721
I1
sI22818
I1
sI2340
I2
sI2341
I1
sI31014
I3
sI14632
I1
sI6447
I1
sI31024
I1
sI6451
I168
sI6455
I1
sI26937
I1
sI6462
I1
sI6465
I1
sI13366
I1
sI6471
I1
sI2377
I1
sI31051
I1
sI26956
I1
sI6479
I1
sI26963
I1
sI31060
I2
sI31065
I1
sI30222
I4
sI10587
I1
sI14689
I1
sI10596
I11
sI2408
I2
sI14702
I2
sI31096
I1
sI27005
I1
sI10632
I1
sI14737
I1
sI30224
I6
sI22935
I1
sI2456
I3
sI10649
I1
sI14749
I3
sI6564
I5
sI22949
I2
sI6566
I1
sI18859
I2
sI22958
I1
sI18869
I5
sI2486
I2
sI22968
I3
sI31165
I1
sI6590
I2
sI14785
I1
sI6601
I1
sI22987
I1
sI18892
I1
sI22992
I1
sI32041
I1
sI27090
I1
sI31188
I50
sI18903
I1
sI14810
I5
sI14813
I5
sI15087
I1
sI27110
I1
sI23018
I4
sI18923
I1
sI31214
I2
sI18928
I3
sI2545
I2
sI27124
I2
sI23030
I6
sI31226
I2
sI18939
I1
sI14851
I5
sI31242
I2
sI14859
I1
sI27148
I1
sI31245
I1
sI18958
I1
sI18963
I1
sI6679
I2
sI18975
I5
sI25008
I1
sI23075
I1
sI2603
I1
sI18991
I1
sI10801
I1
sI23092
I10
sI27192
I1
sI10810
I1
sI19004
I9
sI2625
I2
sI19015
I1
sI2635
I1
sI17273
I1
sI19024
I1
sI2641
I5
sI27221
I1
sI19592
I1
sI27228
I1
sI10850
I1
sI6755
I1
sI10853
I1
sI2666
I1
sI10861
I1
sI2670
I1
sI14960
I1
sI10865
I2
sI14965
I1
sI14967
I1
sI6783
I1
sI6784
I1
sI31364
I18
sI14981
I1
sI31367
I23
sI2696
I1
sI6793
I1
sI6797
I2
sI21613
I1
sI30488
I1
sI10900
I1
sI2709
I5
sI23192
I1
sI23194
I1
sI2716
I1
sI2719
I1
sI27296
I2
sI15009
I1
sI15012
I1
sI19122
I5
sI27320
I4
sI31417
I1
sI10942
I1
sI19135
I2
sI15043
I1
sI15044
I1
sI6853
I1
sI31430
I1
sI10955
I1
sI19149
I1
sI15095
I4
sI19154
I1
sI18212
I2
sI15068
I17
sI31457
I1
sI10980
I51
sI10981
I1
sI31464
I3
sI6889
I1
sI23275
I1
sI10989
I2
sI23279
I1
sI15090
I3
sI10999
I12
sI6907
I1
sI27389
I2
sI6912
I1
sI26411
I4
sI23300
I1
sI13051
I1
sI31191
I1
sI6932
I1
sI19225
I4
sI25736
I1
sI15132
I3
sI11039
I1
sI23328
I1
sI6945
I1
sI2853
I1
sI17543
I1
sI15151
I1
sI11400
I1
sI11058
I1
sI25054
I1
sI27448
I1
sI5259
I2
sI11077
I1
sI15177
I2
sI15179
I1
sI19276
I1
sI18509
I5
sI27471
I3
sI15184
I128
sI4579
I2
sI6996
I1
sI11093
I1
sI23695
I1
sI29234
I1
sI2909
I1
sI31583
I1
sI3216
I22
sI16187
I1
sI11108
I1
sI31592
I8
sI27497
I1
sI7018
I1
sI15212
I1
sI19310
I1
sI14141
I1
sI19312
I4
sI7028
I1
sI2942
I1
sI2943
I1
sI19329
I17
sI15234
I1
sI29846
I1
sI15239
I1
sI15244
I1
sI11416
I1
sI31634
I1
sI23445
I4
sI15255
I3
sI2974
I1
sI31647
I1
sI31648
I5
sI31657
I1
sI23467
I1
sI15276
I2
sI27573
I83
sI23478
I1
sI31674
I8
sI21663
I2
sI11196
I1
sI11197
I1
sI11198
I1
sI23491
I1
sI15302
I1
sI19402
I1
sI11211
I1
sI15311
I1
sI7121
I1
sI15316
I1
sI11224
I1
sI3919
I1
sI19421
I19
sI19422
I1
sI23523
I1
sI27621
I1
sI3046
I1
sI23531
I1
sI23532
I1
sI31726
I4
sI26098
I5
sI31729
I1
sI27634
I1
sI31732
I1
sI7157
I1
sI19451
I2
sI27651
I1
sI31750
I1
sI3080
I2
sI7179
I1
sI19472
I1
sI3094
I1
sI3105
I1
sI19494
I1
sI27690
I1
sI23595
I1
sI27696
I1
sI19506
I1
sI27699
I1
sI19508
I2
sI7229
I3
sI7304
I1
sI19533
I1
sI31828
I1
sI11353
I1
sI11355
I1
sI3171
I1
sI7268
I1
sI19563
I1
sI1213
I1
sI19568
I1
sI7282
I2
sI7283
I1
sI7285
I1
sI27769
I1
sI379
I1
sI27772
I1
sI5562
I2
sI27778
I1
sI27781
I1
sI3208
I1
sI8044
I5
sI27788
I5
sI7362
I2
sI3215
I1
sI31888
I2
sI3224
I1
sI11422
I1
sI15526
I1
sI23720
I1
sI7338
I1
sI19629
I1
sI20119
I1
sI15539
I2
sI3257
I1
sI26432
I1
sI11458
I1
sI27843
I1
sI23751
I1
sI27853
I5
sI3282
I1
sI31956
I1
sI27868
I1
sI3293
I1
sI33317
I2
sI19681
I1
sI8742
I1
sI3304
I1
sI19614
I1
sI31989
I6
sI11512
I1
sI19709
I2
sI15615
I1
sI30592
I2
sI23813
I2
sI23814
I3
sI3343
I8
sI27922
I2
sI14211
I1
sI23829
I3
sI19735
I1
sI11545
I1
sI19739
I7
sI19740
I25
sI27938
I1
sI25820
I1
sI3373
I1
sI15662
I1
sI1245
I3
sI32048
I1
sI27954
I3
sI27955
I1
sI27956
I1
sI19679
I49
sI27968
I1
sI13536
I1
sI7491
I1
sI19781
I2
sI11590
I10
sI14220
I1
sI3402
I1
sI23883
I1
sI27989
I1
sI30256
I3
sI32101
I15
sI19814
I1
sI22755
I1
sI19820
I3
sI15727
I3
sI19825
I1
sI7540
I115
sI23926
I1
sI7545
I7
sI32122
I2
sI32126
I1
sI28034
I1
sI23943
I1
sI15753
I1
sI33346
I1
sI15760
I1
sI23958
I1
sI32158
I1
sI19875
I1
sI28069
I1
sI15784
I1
sI15785
I1
sI23997
I3
sI1269
I1
sI15814
I1
sI19913
I4
sI7626
I3
sI32204
I1
sI28109
I1
sI28116
I1
sI7637
I3
sI23919
I9
sI28124
I1
sI32221
I1
sI24032
I1
sI8784
I1
sI15843
I2
sI29402
I1
sI19943
I2
sI7658
I1
sI19947
I1
sI24669
I1
sI11759
I1
sI24053
I1
sI11766
I1
sI15863
I5
sI7674
I1
sI12667
I3
sI28158
I1
sI29269
I1
sI26539
I2
sI3591
I1
sI6060
I1
sI24074
I4
sI28193
I1
sI32292
I1
sI1797
I1
sI11818
I1
sI32299
I1
sI15917
I1
sI15918
I11
sI3667
I1
sI8798
I1
sI15929
I2
sI24122
I1
sI11836
I7
sI32318
I2
sI8800
I1
sI20036
I1
sI28238
I1
sI24147
I1
sI20055
I1
sI23823
I5
sI15964
I2
sI15967
I1
sI11873
I1
sI32354
I1
sI28264
I1
sI3692
I7
sI24174
I1
sI12221
I1
sI21400
I1
sI11900
I1
sI11901
I1
sI24191
I1
sI28295
I1
sI16016
I1
sI16018
I3
sI24515
I1
sI32407
I1
sI3737
I1
sI7834
I1
sI24219
I1
sI11946
I1
sI28331
I2
sI32430
I3
sI3759
I3
sI7857
I1
sI24246
I2
sI24248
I1
sI16059
I1
sI11964
I1
sI16061
I4
sI24254
I4
sI20160
I10
sI32450
I1
sI11976
I1
sI11983
I2
sI15402
I1
sI1998
I9
sI11993
I1
sI30671
I4
sI16098
I1
sI28399
I1
sI28405
I1
sI27945
I1
sI24314
I1
sI3840
I122
sI7937
I1
sI16130
I1
sI5419
I1
sI3844
I20
sI12041
I2
sI32526
I1
sI16144
I1
sI7960
I3
sI21807
I32
sI20442
I1
sI31365
I1
sI24352
I1
sI3875
I1
sI7975
I1
sI12075
I1
sI16173
I1
sI16176
I1
sI7992
I1
sI7995
I1
sI7996
I1
sI20286
I1
sI16192
I6
sI3905
I2
sI20290
I2
sI8011
I1
sI8015
I1
sI28496
I2
sI20309
I1
sI20311
I1
sI2020
I1
sI16220
I1
sI12127
I50
sI19771
I2
sI20324
I1
sI20325
I1
sI28524
I1
sI3951
I1
sI28531
I1
sI3956
I2
sI12149
I172
sI24439
I16
sI32632
I2
sI8057
I1
sI32639
I1
sI12162
I2
sI12167
I2
sI3978
I4
sI28557
I157
sI8080
I7
sI32657
I2
sI16275
I1
sI8084
I1
sI26077
I1
sI4002
I1
sI27974
I1
sI19228
I1
sI32679
I2
sI8105
I1
sI4017
I1
sI4018
I2
sI16371
I3
sI4021
I1
sI12215
I1
sI12218
I1
sI4028
I1
sI15690
I1
sI2720
I1
sI12226
I1
sI13643
I1
sI12228
I1
sI18422
I1
sI32710
I1
sI16328
I1
sI4041
I1
sI24531
I1
sI24537
I1
sI28634
I1
sI13647
I1
sI24541
I1
sI21157
I1
sI12258
I15
sI4068
I1
sI20454
I1
sI12265
I1
sI15275
I4
sI25939
I1
sI8180
I1
sI17185
I1
sI4094
I4
stRp3
.