ccollections
Counter
p1
((dp2
(I379
I759
tp3
I1
s(I15
I909
tp4
I1
s(I736
I986
tp5
I1
s(I236
I379
tp6
I1
s(I175
I379
tp7
I4
s(I744
I1342
tp8
I2
s(I891
I906
tp9
I1
s(I802
I803
tp10
I1
s(I490
I1108
tp11
I3
s(I180
I627
tp12
I1
s(I683
I902
tp13
I3
s(I390
I745
tp14
I1
s(I29
I1319
tp15
I1
s(I379
I942
tp16
I1
s(I379
I469
tp17
I1
s(I379
I1266
tp18
I2
s(I379
I682
tp19
I2
s(I793
I794
tp20
I1
s(I392
I925
tp21
I1
s(I7
I831
tp22
I2
s(I232
I1031
tp23
I1
s(I379
I799
tp24
I17
s(I379
I1123
tp25
I4
s(I309
I632
tp26
I1
s(I92
I1298
tp27
I1
s(I132
I967
tp28
I1
s(I902
I1170
tp29
I11
s(I354
I668
tp30
I2
s(I379
I652
tp31
I1
s(I50
I932
tp32
I1
s(I490
I921
tp33
I6
s(I825
I1262
tp34
I3
s(I205
I1021
tp35
I1
s(I316
I704
tp36
I1
s(I867
I871
tp37
I2
s(I546
I795
tp38
I1
s(I379
I637
tp39
I3
s(I379
I1306
tp40
I1
s(I1252
I1257
tp41
I1
s(I455
I929
tp42
I1
s(I22
I1274
tp43
I1
s(I390
I736
tp44
I1
s(I816
I1244
tp45
I1
s(I379
I935
tp46
I1
s(I379
I490
tp47
I83
s(I490
I1262
tp48
I1
s(I379
I1163
tp49
I1
s(I736
I831
tp50
I3
s(I379
I612
tp51
I1
s(I736
I1027
tp52
I1
s(I852
I1292
tp53
I5
s(I582
I856
tp54
I1
s(I744
I953
tp55
I1
s(I484
I764
tp56
I1
s(I379
I1144
tp57
I1
s(I319
I1300
tp58
I1
s(I138
I379
tp59
I1
s(I379
I645
tp60
I2
s(I215
I379
tp61
I1
s(I241
I303
tp62
I1
s(I611
I847
tp63
I2
s(I927
I1182
tp64
I4
s(I392
I738
tp65
I1
s(I337
I1319
tp66
I1
s(I379
I626
tp67
I3
s(I306
I379
tp68
I1
s(I490
I492
tp69
I1
s(I334
I928
tp70
I1
s(I364
I666
tp71
I1
s(I373
I966
tp72
I1
s(I744
I1211
tp73
I1
s(I379
I483
tp74
I1
s(I623
I1133
tp75
I1
s(I902
I1277
tp76
I1
s(I354
I831
tp77
I2
s(I31
I1270
tp78
I1
s(I379
I1137
tp79
I1
s(I950
I968
tp80
I1
s(I60
I570
tp81
I1
s(I396
I612
tp82
I1
s(I232
I900
tp83
I4
s(I379
I666
tp84
I1
s(I379
I986
tp85
I9
s(I71
I1004
tp86
I1
s(I71
I1339
tp87
I1
s(I665
I1324
tp88
I1
s(I392
I745
tp89
I1
s(I816
I822
tp90
I2
s(I379
I964
tp91
I1
s(I379
I523
tp92
I1
s(I490
I538
tp93
I2
s(I379
I1320
tp94
I2
s(I309
I364
tp95
I1
s(I534
I928
tp96
I1
s(I581
I816
tp97
I1
s(I379
I504
tp98
I1
s(I470
I785
tp99
I1
s(I379
I1177
tp100
I1
s(I38
I757
tp101
I1
s(I612
I730
tp102
I1
s(I62
I581
tp103
I1
s(I232
I1148
tp104
I3
s(I379
I802
tp105
I17
s(I513
I929
tp106
I1
s(I379
I1142
tp107
I1
s(I272
I785
tp108
I1
s(I41
I379
tp109
I1
s(I388
I915
tp110
I1
s(I427
I744
tp111
I1
s(I455
I513
tp112
I1
s(I690
I891
tp113
I2
s(I286
I744
tp114
I1
s(I379
I431
tp115
I5
s(I1011
I1207
tp116
I1
s(I280
I427
tp117
I1
s(I209
I379
tp118
I1
s(I744
I837
tp119
I2
s(I344
I379
tp120
I1
s(I379
I989
tp121
I1
s(I30
I379
tp122
I1
s(I197
I927
tp123
I3
s(I346
I379
tp124
I1
s(I691
I1174
tp125
I2
s(I833
I891
tp126
I1
s(I408
I485
tp127
I1
s(I354
I833
tp128
I1
s(I816
I1217
tp129
I1
s(I282
I1128
tp130
I1
s(I379
I497
tp131
I1
s(I468
I489
tp132
I1
s(I931
I1011
tp133
I1
s(I379
I1182
tp134
I9
s(I132
I802
tp135
I1
s(I58
I816
tp136
I1
s(I20
I736
tp137
I1
s(I258
I379
tp138
I14
s(I353
I831
tp139
I1
s(I764
I1170
tp140
I1
s(I84
I697
tp141
I1
s(I379
I827
tp142
I1
s(I931
I1270
tp143
I1
s(I179
I816
tp144
I1
s(I933
I940
tp145
I1
s(I665
I858
tp146
I1
s(I327
I546
tp147
I1
s(I744
I1095
tp148
I2
s(I270
I1268
tp149
I1
s(I109
I736
tp150
I2
s(I41
I1262
tp151
I1
s(I129
I853
tp152
I1
s(I744
I1281
tp153
I2
s(I379
I537
tp154
I1
s(I585
I736
tp155
I2
s(I379
I1318
tp156
I2
s(I1123
I1129
tp157
I1
s(I379
I1030
tp158
I6
s(I423
I458
tp159
I1
s(I483
I551
tp160
I1
s(I329
I599
tp161
I1
s(I379
I835
tp162
I1
s(I379
I502
tp163
I1
s(I160
I380
tp164
I1
s(I379
I1175
tp165
I2
s(I1051
I1274
tp166
I2
s(I511
I1181
tp167
I1
s(I238
I319
tp168
I1
s(I516
I582
tp169
I1
s(I744
I994
tp170
I2
s(I331
I453
tp171
I1
s(I1041
I1087
tp172
I3
s(I379
I816
tp173
I5
s(I489
I747
tp174
I1
s(I379
I1028
tp175
I1
s(I173
I864
tp176
I1
s(I474
I1270
tp177
I1
s(I177
I902
tp178
I1
s(I639
I656
tp179
I2
s(I388
I784
tp180
I1
s(I392
I670
tp181
I1
s(I232
I776
tp182
I1
s(I766
I816
tp183
I1
s(I744
I806
tp184
I1
s(I379
I948
tp185
I1
s(I826
I1261
tp186
I1
s(I459
I816
tp187
I1
s(I1071
I1174
tp188
I1
s(I449
I588
tp189
I1
s(I392
I1292
tp190
I7
s(I489
I1122
tp191
I1
s(I161
I379
tp192
I5
s(I379
I1196
tp193
I1
s(I239
I769
tp194
I1
s(I633
I846
tp195
I1
s(I713
I776
tp196
I1
s(I71
I379
tp197
I38
s(I232
I1105
tp198
I1
s(I869
I1281
tp199
I1
s(I104
I379
tp200
I1
s(I379
I713
tp201
I2
s(I452
I606
tp202
I1
s(I180
I379
tp203
I1
s(I623
I1270
tp204
I1
s(I379
I1351
tp205
I1
s(I309
I868
tp206
I1
s(I693
I799
tp207
I1
s(I379
I582
tp208
I13
s(I1072
I1262
tp209
I1
s(I857
I1242
tp210
I2
s(I379
I992
tp211
I1
s(I379
I535
tp212
I1
s(I1164
I1255
tp213
I1
s(I816
I1270
tp214
I3
s(I379
I849
tp215
I2
s(I379
I388
tp216
I14
s(I52
I648
tp217
I1
s(I1141
I1170
tp218
I2
s(I957
I1317
tp219
I1
s(I26
I690
tp220
I2
s(I611
I632
tp221
I1
s(I157
I1031
tp222
I1
s(I342
I379
tp223
I1
s(I379
I1042
tp224
I1
s(I147
I379
tp225
I1
s(I392
I1041
tp226
I3
s(I1335
I1336
tp227
I1
s(I255
I682
tp228
I1
s(I54
I478
tp229
I1
s(I379
I1017
tp230
I1
s(I197
I1170
tp231
I3
s(I379
I1229
tp232
I6
s(I236
I722
tp233
I1
s(I91
I1290
tp234
I1
s(I632
I1346
tp235
I2
s(I116
I392
tp236
I1
s(I78
I579
tp237
I1
s(I1170
I1214
tp238
I6
s(I379
I413
tp239
I1
s(I490
I831
tp240
I8
s(I379
I1210
tp241
I1
s(I623
I728
tp242
I1
s(I238
I464
tp243
I1
s(I167
I931
tp244
I1
s(I280
I1350
tp245
I1
s(I744
I906
tp246
I5
s(I344
I1134
tp247
I1
s(I280
I757
tp248
I1
s(I509
I643
tp249
I1
s(I287
I744
tp250
I1
s(I632
I1131
tp251
I1
s(I280
I938
tp252
I1
s(I632
I831
tp253
I7
s(I744
I793
tp254
I2
s(I250
I379
tp255
I1
s(I251
I379
tp256
I1
s(I489
I623
tp257
I2
s(I400
I489
tp258
I1
s(I132
I379
tp259
I1
s(I209
I1270
tp260
I1
s(I248
I1282
tp261
I4
s(I141
I1064
tp262
I1
s(I250
I490
tp263
I1
s(I379
I1218
tp264
I1
s(I185
I1270
tp265
I1
s(I309
I891
tp266
I1
s(I319
I1095
tp267
I2
s(I300
I379
tp268
I1
s(I157
I210
tp269
I2
s(I286
I489
tp270
I1
s(I379
I1203
tp271
I1
s(I354
I436
tp272
I1
s(I957
I1335
tp273
I1
s(I25
I65
tp274
I1
s(I557
I744
tp275
I1
s(I735
I931
tp276
I1
s(I579
I816
tp277
I1
s(I377
I744
tp278
I1
s(I379
I732
tp279
I1
s(I379
I1056
tp280
I1
s(I329
I589
tp281
I1
s(I272
I1328
tp282
I1
s(I458
I728
tp283
I1
s(I11
I1193
tp284
I1
s(I248
I1103
tp285
I4
s(I379
I589
tp286
I13
s(I256
I1072
tp287
I1
s(I294
I379
tp288
I1
s(I704
I925
tp289
I1
s(I379
I1015
tp290
I1
s(I379
I570
tp291
I1
s(I325
I938
tp292
I1
s(I379
I1243
tp293
I3
s(I292
I293
tp294
I1
s(I490
I1132
tp295
I1
s(I744
I1267
tp296
I1
s(I265
I955
tp297
I1
s(I379
I868
tp298
I2
s(I379
I427
tp299
I2
s(I505
I1236
tp300
I1
s(I54
I129
tp301
I1
s(I436
I1073
tp302
I4
s(I404
I891
tp303
I1
s(I49
I379
tp304
I1
s(I955
I1102
tp305
I1
s(I379
I725
tp306
I2
s(I140
I457
tp307
I1
s(I379
I1081
tp308
I1
s(I572
I776
tp309
I1
s(I957
I1270
tp310
I1
s(I362
I519
tp311
I1
s(I99
I649
tp312
I1
s(I229
I379
tp313
I2
s(I379
I578
tp314
I1
s(I364
I611
tp315
I1
s(I91
I736
tp316
I2
s(I126
I379
tp317
I1
s(I729
I1170
tp318
I2
s(I923
I1209
tp319
I1
s(I189
I392
tp320
I1
s(I355
I864
tp321
I3
s(I489
I757
tp322
I1
s(I92
I319
tp323
I4
s(I141
I379
tp324
I1
s(I142
I379
tp325
I1
s(I535
I736
tp326
I1
s(I203
I379
tp327
I1
s(I4
I376
tp328
I1
s(I687
I933
tp329
I1
s(I816
I1170
tp330
I4
s(I229
I1000
tp331
I2
s(I379
I893
tp332
I1
s(I379
I416
tp333
I2
s(I379
I1089
tp334
I1
s(I736
I757
tp335
I5
s(I240
I319
tp336
I1
s(I666
I736
tp337
I1
s(I902
I927
tp338
I1
s(I139
I925
tp339
I1
s(I725
I1065
tp340
I1
s(I379
I746
tp341
I2
s(I379
I1086
tp342
I1
s(I319
I957
tp343
I1
s(I379
I603
tp344
I1
s(I379
I957
tp345
I6
s(I309
I833
tp346
I1
s(I12
I272
tp347
I1
s(I736
I1266
tp348
I2
s(I901
I1268
tp349
I1
s(I874
I1179
tp350
I1
s(I449
I905
tp351
I1
s(I319
I770
tp352
I2
s(I379
I901
tp353
I1
s(I379
I456
tp354
I1
s(I490
I1152
tp355
I1
s(I379
I845
tp356
I1
s(I329
I345
tp357
I1
s(I280
I744
tp358
I74
s(I134
I413
tp359
I1
s(I502
I891
tp360
I1
s(I379
I882
tp361
I1
s(I379
I441
tp362
I1
s(I52
I619
tp363
I1
s(I368
I379
tp364
I2
s(I1129
I1131
tp365
I1
s(I600
I1217
tp366
I1
s(I816
I910
tp367
I1
s(I449
I864
tp368
I1
s(I319
I736
tp369
I4
s(I250
I1245
tp370
I1
s(I379
I1079
tp371
I1
s(I280
I379
tp372
I156
s(I744
I885
tp373
I1
s(I319
I625
tp374
I3
s(I379
I592
tp375
I1
s(I986
I990
tp376
I1
s(I228
I379
tp377
I2
s(I203
I853
tp378
I1
s(I379
I1204
tp379
I1
s(I280
I490
tp380
I9
s(I579
I581
tp381
I1
s(I232
I857
tp382
I4
s(I379
I922
tp383
I1
s(I379
I449
tp384
I50
s(I379
I1262
tp385
I41
s(I364
I736
tp386
I1
s(I182
I379
tp387
I1
s(I441
I665
tp388
I1
s(I232
I744
tp389
I6
s(I379
I779
tp390
I1
s(I582
I589
tp391
I2
s(I379
I1119
tp392
I1
s(I878
I1143
tp393
I1
s(I349
I379
tp394
I4
s(I350
I379
tp395
I1
s(I1243
I1268
tp396
I3
s(I379
I760
tp397
I6
s(I931
I1207
tp398
I1
s(I474
I867
tp399
I1
s(I379
I826
tp400
I1
s(I36
I379
tp401
I1
s(I379
I1299
tp402
I1
s(I52
I496
tp403
I1
s(I868
I1017
tp404
I1
s(I410
I973
tp405
I1
s(I379
I617
tp406
I1
s(I490
I1123
tp407
I1
s(I912
I915
tp408
I1
s(I317
I722
tp409
I1
s(I879
I881
tp410
I1
s(I74
I319
tp411
I2
s(I163
I655
tp412
I1
s(I177
I379
tp413
I3
s(I280
I1170
tp414
I4
s(I117
I379
tp415
I1
s(I757
I1334
tp416
I1
s(I139
I316
tp417
I1
s(I379
I915
tp418
I10
s(I490
I1266
tp419
I2
s(I490
I591
tp420
I1
s(I379
I1255
tp421
I3
s(I474
I901
tp422
I1
s(I181
I831
tp423
I1
s(I736
I1151
tp424
I1
s(I42
I538
tp425
I2
s(I303
I776
tp426
I1
s(I29
I379
tp427
I1
s(I379
I768
tp428
I3
s(I379
I439
tp429
I5
s(I822
I857
tp430
I1
s(I379
I1108
tp431
I8
s(I915
I1264
tp432
I1
s(I276
I354
tp433
I1
s(I731
I837
tp434
I2
s(I81
I1022
tp435
I2
s(I86
I432
tp436
I1
s(I29
I929
tp437
I1
s(I379
I753
tp438
I1
s(I280
I1130
tp439
I1
s(I320
I379
tp440
I7
s(I379
I622
tp441
I1
s(I68
I744
tp442
I1
s(I736
I947
tp443
I1
s(I601
I736
tp444
I1
s(I736
I1159
tp445
I1
s(I653
I744
tp446
I1
s(I379
I936
tp447
I1
s(I379
I479
tp448
I1
s(I15
I1262
tp449
I1
s(I472
I864
tp450
I1
s(I379
I1276
tp451
I8
s(I645
I799
tp452
I1
s(I26
I891
tp453
I2
s(I265
I1236
tp454
I1
s(I319
I1129
tp455
I1
s(I546
I744
tp456
I35
s(I379
I793
tp457
I3
s(I503
I744
tp458
I9
s(I379
I1133
tp459
I1
s(I379
I390
tp460
I8
s(I193
I1117
tp461
I2
s(I872
I902
tp462
I1
s(I174
I546
tp463
I1
s(I15
I379
tp464
I1
s(I935
I1016
tp465
I1
s(I76
I379
tp466
I5
s(I477
I691
tp467
I2
s(I319
I1200
tp468
I2
s(I379
I615
tp469
I1
s(I379
I1284
tp470
I1
s(I736
I842
tp471
I1
s(I239
I1129
tp472
I1
s(I736
I1182
tp473
I8
s(I168
I379
tp474
I1
s(I244
I379
tp475
I1
s(I160
I736
tp476
I13
s(I213
I858
tp477
I1
s(I641
I757
tp478
I1
s(I19
I379
tp479
I1
s(I744
I1245
tp480
I1
s(I379
I798
tp481
I1
s(I69
I379
tp482
I1
s(I379
I1122
tp483
I1
s(I81
I1000
tp484
I2
s(I632
I776
tp485
I2
s(I302
I933
tp486
I1
s(I379
I655
tp487
I1
s(I237
I379
tp488
I1
s(I334
I736
tp489
I1
s(I1151
I1273
tp490
I1
s(I279
I1179
tp491
I1
s(I379
I969
tp492
I1
s(I379
I636
tp493
I1
s(I489
I492
tp494
I1
s(I232
I1170
tp495
I4
s(I183
I901
tp496
I1
s(I735
I744
tp497
I2
s(I760
I1170
tp498
I5
s(I593
I636
tp499
I1
s(I117
I129
tp500
I1
s(I123
I166
tp501
I2
s(I490
I1263
tp502
I1
s(I379
I1162
tp503
I1
s(I100
I862
tp504
I1
s(I691
I1182
tp505
I4
s(I190
I1190
tp506
I1
s(I744
I1079
tp507
I1
s(I390
I1027
tp508
I1
s(I379
I1147
tp509
I1
s(I864
I1071
tp510
I1
s(I623
I1236
tp511
I1
s(I915
I1031
tp512
I1
s(I166
I490
tp513
I2
s(I573
I938
tp514
I1
s(I315
I902
tp515
I1
s(I744
I969
tp516
I1
s(I379
I644
tp517
I1
s(I71
I92
tp518
I1
s(I864
I1182
tp519
I1
s(I261
I931
tp520
I1
s(I372
I716
tp521
I1
s(I489
I1268
tp522
I2
s(I379
I629
tp523
I1
s(I86
I379
tp524
I1
s(I379
I1298
tp525
I1
s(I163
I449
tp526
I1
s(I146
I379
tp527
I21
s(I550
I864
tp528
I1
s(I257
I463
tp529
I1
s(I223
I379
tp530
I1
s(I208
I379
tp531
I1
s(I776
I957
tp532
I1
s(I84
I1062
tp533
I1
s(I407
I730
tp534
I1
s(I906
I1175
tp535
I2
s(I379
I959
tp536
I1
s(I582
I986
tp537
I1
s(I379
I1155
tp538
I1
s(I94
I508
tp539
I1
s(I62
I579
tp540
I2
s(I135
I379
tp541
I1
s(I120
I1328
tp542
I1
s(I379
I812
tp543
I1
s(I129
I744
tp544
I1
s(I379
I1136
tp545
I1
s(I276
I744
tp546
I1
s(I551
I757
tp547
I1
s(I933
I1067
tp548
I1
s(I423
I728
tp549
I1
s(I392
I746
tp550
I2
s(I744
I863
tp551
I1
s(I379
I967
tp552
I4
s(I379
I1323
tp553
I1
s(I511
I995
tp554
I1
s(I92
I1031
tp555
I1
s(I757
I967
tp556
I1
s(I25
I489
tp557
I1
s(I632
I1012
tp558
I1
s(I83
I744
tp559
I1
s(I637
I1041
tp560
I3
s(I449
I632
tp561
I5
s(I160
I757
tp562
I1
s(I379
I507
tp563
I1
s(I572
I1226
tp564
I1
s(I239
I1342
tp565
I2
s(I121
I449
tp566
I1
s(I582
I605
tp567
I1
s(I379
I1033
tp568
I1
s(I71
I855
tp569
I1
s(I576
I1281
tp570
I1
s(I119
I831
tp571
I3
s(I379
I658
tp572
I1
s(I1031
I1298
tp573
I1
s(I183
I867
tp574
I1
s(I379
I647
tp575
I1
s(I295
I432
tp576
I2
s(I683
I1262
tp577
I11
s(I210
I831
tp578
I2
s(I728
I925
tp579
I1
s(I744
I1307
tp580
I1
s(I672
I744
tp581
I1
s(I31
I736
tp582
I1
s(I286
I632
tp583
I1
s(I379
I1312
tp584
I1
s(I272
I619
tp585
I1
s(I627
I915
tp586
I2
s(I379
I1031
tp587
I15
s(I1024
I1240
tp588
I1
s(I407
I744
tp589
I1
s(I431
I961
tp590
I2
s(I379
I496
tp591
I1
s(I379
I1169
tp592
I1
s(I933
I986
tp593
I1
s(I293
I379
tp594
I1
s(I38
I379
tp595
I1
s(I354
I379
tp596
I13
s(I304
I1036
tp597
I1
s(I29
I337
tp598
I1
s(I52
I1303
tp599
I1
s(I160
I735
tp600
I1
s(I379
I1038
tp601
I2
s(I390
I931
tp602
I1
s(I319
I470
tp603
I1
s(I266
I379
tp604
I1
s(I379
I683
tp605
I11
s(I489
I626
tp606
I1
s(I623
I933
tp607
I1
s(I179
I522
tp608
I1
s(I632
I915
tp609
I1
s(I392
I816
tp610
I1
s(I247
I938
tp611
I1
s(I379
I981
tp612
I2
s(I820
I821
tp613
I7
s(I123
I847
tp614
I2
s(I379
I1337
tp615
I1
s(I364
I665
tp616
I2
s(I38
I483
tp617
I1
s(I665
I1147
tp618
I1
s(I449
I1031
tp619
I1
s(I379
I834
tp620
I1
s(I379
I393
tp621
I1
s(I472
I891
tp622
I1
s(I379
I1174
tp623
I13
s(I92
I632
tp624
I6
s(I435
I744
tp625
I1
s(I109
I1281
tp626
I2
s(I554
I837
tp627
I1
s(I766
I1090
tp628
I1
s(I1041
I1268
tp629
I3
s(I174
I327
tp630
I1
s(I87
I1207
tp631
I1
s(I34
I490
tp632
I2
s(I268
I1170
tp633
I1
s(I74
I661
tp634
I2
s(I292
I379
tp635
I1
s(I390
I922
tp636
I1
s(I490
I829
tp637
I1
s(I449
I660
tp638
I2
s(I379
I672
tp639
I1
s(I379
I1345
tp640
I1
s(I163
I1037
tp641
I1
s(I208
I456
tp642
I1
s(I744
I1289
tp643
I1
s(I687
I1067
tp644
I1
s(I490
I1211
tp645
I1
s(I379
I1342
tp646
I2
s(I1087
I1268
tp647
I3
s(I71
I1131
tp648
I1
s(I649
I839
tp649
I1
s(I379
I859
tp650
I3
s(I895
I1170
tp651
I1
s(I213
I1270
tp652
I1
s(I927
I1168
tp653
I1
s(I1
I379
tp654
I5
s(I788
I1195
tp655
I1
s(I44
I319
tp656
I3
s(I209
I985
tp657
I1
s(I742
I1229
tp658
I1
s(I1222
I1270
tp659
I1
s(I379
I712
tp660
I1
s(I379
I383
tp661
I1
s(I213
I1324
tp662
I1
s(I379
I1052
tp663
I1
s(I239
I881
tp664
I1
s(I75
I1008
tp665
I1
s(I1291
I1351
tp666
I1
s(I169
I379
tp667
I1
s(I721
I1289
tp668
I2
s(I319
I915
tp669
I1
s(I379
I697
tp670
I1
s(I379
I1350
tp671
I2
s(I364
I632
tp672
I2
s(I112
I379
tp673
I1
s(I296
I317
tp674
I1
s(I354
I1017
tp675
I1
s(I449
I1120
tp676
I1
s(I1096
I1253
tp677
I1
s(I319
I718
tp678
I1
s(I379
I534
tp679
I1
s(I379
I1335
tp680
I1
s(I736
I891
tp681
I1
s(I867
I1281
tp682
I1
s(I791
I1274
tp683
I1
s(I1071
I1182
tp684
I1
s(I906
I915
tp685
I1
s(I356
I379
tp686
I1
s(I379
I848
tp687
I1
s(I379
I1188
tp688
I1
s(I736
I746
tp689
I2
s(I667
I931
tp690
I1
s(I392
I943
tp691
I1
s(I744
I900
tp692
I1
s(I464
I785
tp693
I1
s(I105
I379
tp694
I1
s(I984
I1170
tp695
I3
s(I379
I1045
tp696
I1
s(I280
I1082
tp697
I1
s(I354
I1025
tp698
I1
s(I25
I602
tp699
I1
s(I63
I580
tp700
I1
s(I9
I816
tp701
I1
s(I302
I986
tp702
I1
s(I176
I410
tp703
I1
s(I379
I702
tp704
I1
s(I470
I619
tp705
I1
s(I23
I254
tp706
I1
s(I280
I392
tp707
I2
s(I869
I901
tp708
I2
s(I585
I738
tp709
I1
s(I379
I559
tp710
I2
s(I379
I1228
tp711
I4
s(I379
I659
tp712
I11
s(I379
I1160
tp713
I1
s(I242
I861
tp714
I2
s(I891
I1029
tp715
I1
s(I744
I866
tp716
I1
s(I124
I345
tp717
I1
s(I161
I959
tp718
I1
s(I379
I398
tp719
I2
s(I869
I871
tp720
I2
s(I379
I710
tp721
I2
s(I490
I847
tp722
I2
s(I587
I744
tp723
I1
s(I912
I1115
tp724
I1
s(I615
I744
tp725
I1
s(I379
I695
tp726
I2
s(I91
I379
tp727
I5
s(I280
I986
tp728
I1
s(I150
I997
tp729
I1
s(I483
I757
tp730
I1
s(I449
I1138
tp731
I1
s(I355
I1170
tp732
I1
s(I379
I1009
tp733
I1
s(I379
I548
tp734
I1
s(I392
I1087
tp735
I3
s(I379
I1221
tp736
I3
s(I129
I203
tp737
I1
s(I3
I379
tp738
I1
s(I335
I379
tp739
I1
s(I319
I1094
tp740
I2
s(I140
I379
tp741
I1
s(I140
I896
tp742
I1
s(I336
I498
tp743
I1
s(I379
I1202
tp744
I1
s(I623
I736
tp745
I2
s(I1057
I1061
tp746
I3
s(I379
I735
tp747
I2
s(I285
I379
tp748
I1
s(I379
I1059
tp749
I1
s(I308
I379
tp750
I1
s(I757
I814
tp751
I1
s(I176
I1257
tp752
I1
s(I379
I588
tp753
I1
s(I380
I1334
tp754
I1
s(I161
I623
tp755
I1
s(I239
I765
tp756
I16
s(I20
I361
tp757
I1
s(I722
I968
tp758
I1
s(I981
I1045
tp759
I1
s(I582
I915
tp760
I1
s(I379
I1242
tp761
I2
s(I91
I1307
tp762
I1
s(I203
I325
tp763
I1
s(I713
I902
tp764
I1
s(I973
I1252
tp765
I1
s(I816
I946
tp766
I3
s(I744
I1268
tp767
I3
s(I302
I379
tp768
I1
s(I379
I426
tp769
I1
s(I379
I1099
tp770
I1
s(I1031
I1034
tp771
I1
s(I241
I1335
tp772
I1
s(I1177
I1205
tp773
I1
s(I424
I891
tp774
I1
s(I294
I751
tp775
I1
s(I304
I1062
tp776
I1
s(I379
I724
tp777
I1
s(I744
I967
tp778
I3
s(I752
I799
tp779
I1
s(I235
I392
tp780
I1
s(I864
I1262
tp781
I1
s(I1036
I1062
tp782
I1
s(I816
I864
tp783
I1
s(I12
I464
tp784
I1
s(I487
I566
tp785
I1
s(I610
I1243
tp786
I2
s(I379
I642
tp787
I1
s(I329
I1255
tp788
I2
s(I43
I490
tp789
I1
s(I84
I1270
tp790
I1
s(I449
I506
tp791
I1
s(I379
I911
tp792
I1
s(I379
I562
tp793
I2
s(I582
I906
tp794
I1
s(I490
I595
tp795
I1
s(I20
I938
tp796
I1
s(I52
I831
tp797
I2
s(I319
I661
tp798
I2
s(I379
I892
tp799
I2
s(I931
I1083
tp800
I1
s(I195
I1262
tp801
I1
s(I325
I853
tp802
I1
s(I379
I1088
tp803
I4
s(I92
I594
tp804
I2
s(I458
I459
tp805
I1
s(I331
I805
tp806
I1
s(I150
I379
tp807
I1
s(I522
I816
tp808
I1
s(I211
I379
tp809
I1
s(I379
I749
tp810
I2
s(I287
I379
tp811
I1
s(I379
I1073
tp812
I5
s(I626
I730
tp813
I1
s(I957
I986
tp814
I1
s(I173
I256
tp815
I1
s(I138
I290
tp816
I1
s(I872
I1262
tp817
I1
s(I361
I736
tp818
I1
s(I303
I1336
tp819
I1
s(I146
I290
tp820
I1
s(I632
I1264
tp821
I1
s(I321
I1170
tp822
I1
s(I871
I901
tp823
I2
s(I379
I900
tp824
I6
s(I379
I459
tp825
I1
s(I12
I1328
tp826
I1
s(I379
I772
tp827
I1
s(I837
I1245
tp828
I1
s(I121
I1136
tp829
I1
s(I337
I929
tp830
I1
s(I449
I1270
tp831
I1
s(I744
I1250
tp832
I1
s(I157
I232
tp833
I4
s(I379
I440
tp834
I1
s(I379
I1113
tp835
I3
s(I37
I248
tp836
I4
s(I333
I487
tp837
I1
s(I582
I853
tp838
I1
s(I691
I736
tp839
I4
s(I84
I754
tp840
I1
s(I379
I738
tp841
I3
s(I864
I1276
tp842
I1
s(I379
I1296
tp843
I1
s(I957
I1031
tp844
I2
s(I319
I1307
tp845
I1
s(I672
I765
tp846
I1
s(I376
I379
tp847
I1
s(I891
I1017
tp848
I1
s(I379
I595
tp849
I11
s(I144
I956
tp850
I1
s(I185
I449
tp851
I1
s(I498
I776
tp852
I2
s(I157
I1242
tp853
I2
s(I379
I494
tp854
I1
s(I379
I925
tp855
I1
s(I50
I736
tp856
I1
s(I71
I160
tp857
I7
s(I392
I1002
tp858
I4
s(I139
I704
tp859
I1
s(I379
I778
tp860
I1
s(I303
I957
tp861
I1
s(I765
I1250
tp862
I1
s(I379
I1118
tp863
I1
s(I554
I1082
tp864
I1
s(I369
I379
tp865
I1
s(I379
I1058
tp866
I1
s(I189
I379
tp867
I1
s(I190
I379
tp868
I1
s(I232
I931
tp869
I3
s(I232
I632
tp870
I1
s(I319
I744
tp871
I53
s(I490
I938
tp872
I1
s(I751
I757
tp873
I1
s(I239
I672
tp874
I1
s(I915
I1115
tp875
I1
s(I594
I625
tp876
I2
s(I459
I925
tp877
I1
s(I611
I744
tp878
I3
s(I353
I744
tp879
I2
s(I744
I893
tp880
I1
s(I357
I379
tp881
I1
s(I379
I616
tp882
I1
s(I379
I1289
tp883
I5
s(I54
I543
tp884
I1
s(I960
I1270
tp885
I1
s(I687
I896
tp886
I1
s(I379
I914
tp887
I1
s(I379
I473
tp888
I1
s(I379
I767
tp889
I3
s(I379
I1254
tp890
I1
s(I293
I632
tp891
I1
s(I543
I1283
tp892
I1
s(I742
I1082
tp893
I1
s(I835
I868
tp894
I1
s(I379
I438
tp895
I1
s(I125
I379
tp896
I5
s(I431
I1243
tp897
I2
s(I38
I551
tp898
I1
s(I275
I371
tp899
I1
s(I77
I1177
tp900
I1
s(I392
I864
tp901
I1
s(I379
I752
tp902
I5
s(I250
I744
tp903
I1
s(I490
I917
tp904
I1
s(I623
I922
tp905
I1
s(I37
I379
tp906
I4
s(I736
I1321
tp907
I1
s(I259
I935
tp908
I1
s(I193
I319
tp909
I2
s(I744
I868
tp910
I1
s(I303
I379
tp911
I1
s(I787
I816
tp912
I1
s(I490
I1349
tp913
I1
s(I354
I490
tp914
I1
s(I449
I915
tp915
I3
s(I11
I180
tp916
I1
s(I267
I379
tp917
I1
s(I379
I478
tp918
I1
s(I490
I1274
tp919
I1
s(I379
I1279
tp920
I4
s(I754
I1269
tp921
I1
s(I310
I319
tp922
I3
s(I449
I1241
tp923
I1
s(I139
I766
tp924
I1
s(I46
I926
tp925
I4
s(I431
I451
tp926
I2
s(I752
I931
tp927
I1
s(I379
I891
tp928
I51
s(I858
I1324
tp929
I1
s(I490
I891
tp930
I3
s(I983
I1170
tp931
I5
s(I436
I624
tp932
I1
s(I915
I1129
tp933
I1
s(I45
I228
tp934
I1
s(I321
I379
tp935
I3
s(I906
I1043
tp936
I1
s(I319
I623
tp937
I1
s(I379
I614
tp938
I1
s(I995
I1181
tp939
I1
s(I23
I379
tp940
I3
s(I1035
I1074
tp941
I1
s(I84
I379
tp942
I4
s(I379
I928
tp943
I1
s(I472
I477
tp944
I2
s(I546
I736
tp945
I1
s(I176
I379
tp946
I1
s(I489
I1067
tp947
I1
s(I105
I766
tp948
I1
s(I816
I1243
tp949
I2
s(I140
I1067
tp950
I1
s(I379
I1125
tp951
I1
s(I256
I744
tp952
I1
s(I65
I597
tp953
I1
s(I247
I325
tp954
I1
s(I354
I857
tp955
I1
s(I379
I654
tp956
I1
s(I35
I864
tp957
I1
s(I413
I1161
tp958
I1
s(I623
I896
tp959
I1
s(I82
I1229
tp960
I2
s(I661
I744
tp961
I2
s(I77
I379
tp962
I1
s(I938
I943
tp963
I1
s(I474
I871
tp964
I1
s(I922
I997
tp965
I1
s(I410
I462
tp966
I1
s(I562
I744
tp967
I1
s(I379
I968
tp968
I1
s(I379
I639
tp969
I2
s(I842
I994
tp970
I1
s(I595
I632
tp971
I1
s(I379
I953
tp972
I1
s(I490
I1260
tp973
I1
s(I379
I1165
tp974
I1
s(I185
I736
tp975
I1
s(I831
I1186
tp976
I2
s(I319
I703
tp977
I1
s(I379
I790
tp978
I2
s(I379
I1146
tp979
I1
s(I44
I679
tp980
I3
s(I744
I1108
tp981
I5
s(I986
I1064
tp982
I1
s(I379
I1036
tp983
I1
s(I626
I841
tp984
I1
s(I952
I1025
tp985
I1
s(I1016
I1128
tp986
I1
s(I920
I964
tp987
I1
s(I224
I1026
tp988
I1
s(I744
I857
tp989
I1
s(I379
I961
tp990
I2
s(I379
I628
tp991
I1
s(I1005
I1165
tp992
I1
s(I379
I1301
tp993
I2
s(I256
I472
tp994
I1
s(I274
I1212
tp995
I1
s(I379
I958
tp996
I1
s(I379
I485
tp997
I2
s(I931
I967
tp998
I1
s(I379
I1154
tp999
I1
s(I379
I797
tp1000
I4
s(I154
I379
tp1001
I1
s(I1170
I1324
tp1002
I1
s(I744
I1228
tp1003
I2
s(I379
I815
tp1004
I1
s(I489
I841
tp1005
I1
s(I757
I799
tp1006
I3
s(I723
I931
tp1007
I1
s(I816
I857
tp1008
I1
s(I379
I668
tp1009
I4
s(I289
I864
tp1010
I1
s(I864
I1174
tp1011
I1
s(I128
I379
tp1012
I1
s(I183
I869
tp1013
I1
s(I21
I736
tp1014
I10
s(I388
I744
tp1015
I2
s(I632
I902
tp1016
I3
s(I516
I864
tp1017
I1
s(I379
I966
tp1018
I1
s(I379
I525
tp1019
I1
s(I379
I1016
tp1020
I1
s(I379
I1322
tp1021
I1
s(I623
I1031
tp1022
I1
s(I292
I632
tp1023
I1
s(I152
I736
tp1024
I1
s(I379
I951
tp1025
I3
s(I379
I506
tp1026
I1
s(I32
I736
tp1027
I1
s(I144
I490
tp1028
I1
s(I272
I319
tp1029
I1
s(I250
I280
tp1030
I1
s(I451
I1268
tp1031
I2
s(I167
I280
tp1032
I1
s(I280
I730
tp1033
I1
s(I227
I245
tp1034
I1
s(I276
I436
tp1035
I1
s(I449
I744
tp1036
I3
s(I379
I804
tp1037
I2
s(I379
I1032
tp1038
I1
s(I772
I1119
tp1039
I1
s(I97
I319
tp1040
I1
s(I736
I1016
tp1041
I1
s(I435
I452
tp1042
I1
s(I744
I902
tp1043
I3
s(I390
I933
tp1044
I1
s(I379
I991
tp1045
I3
s(I379
I514
tp1046
I1
s(I35
I1105
tp1047
I1
s(I1043
I1255
tp1048
I1
s(I379
I1315
tp1049
I6
s(I802
I1260
tp1050
I1
s(I220
I338
tp1051
I1
s(I379
I505
tp1052
I1
s(I37
I1088
tp1053
I4
s(I728
I816
tp1054
I1
s(I379
I844
tp1055
I1
s(I379
I499
tp1056
I1
s(I491
I954
tp1057
I2
s(I57
I379
tp1058
I2
s(I188
I1243
tp1059
I2
s(I744
I1082
tp1060
I1
s(I379
I829
tp1061
I4
s(I110
I379
tp1062
I1
s(I379
I1025
tp1063
I1
s(I364
I833
tp1064
I1
s(I29
I513
tp1065
I1
s(I258
I744
tp1066
I1
s(I225
I379
tp1067
I1
s(I744
I831
tp1068
I16
s(I301
I379
tp1069
I1
s(I46
I379
tp1070
I4
s(I12
I319
tp1071
I1
s(I362
I379
tp1072
I1
s(I383
I387
tp1073
I1
s(I379
I1213
tp1074
I1
s(I867
I901
tp1075
I2
s(I742
I932
tp1076
I1
s(I708
I860
tp1077
I1
s(I379
I980
tp1078
I1
s(I379
I539
tp1079
I2
s(I213
I1147
tp1080
I1
s(I379
I1336
tp1081
I1
s(I254
I436
tp1082
I1
s(I274
I379
tp1083
I1
s(I379
I435
tp1084
I1
s(I744
I1170
tp1085
I11
s(I379
I837
tp1086
I6
s(I379
I392
tp1087
I50
s(I123
I831
tp1088
I2
s(I379
I1193
tp1089
I1
s(I699
I736
tp1090
I1
s(I513
I562
tp1091
I1
s(I477
I1170
tp1092
I2
s(I744
I919
tp1093
I2
s(I379
I818
tp1094
I2
s(I217
I582
tp1095
I1
s(I159
I954
tp1096
I2
s(I92
I744
tp1097
I4
s(I1108
I1267
tp1098
I1
s(I199
I379
tp1099
I1
s(I582
I1164
tp1100
I1
s(I210
I232
tp1101
I2
s(I462
I1257
tp1102
I1
s(I379
I675
tp1103
I6
s(I379
I1003
tp1104
I1
s(I802
I1031
tp1105
I2
s(I160
I1334
tp1106
I1
s(I210
I379
tp1107
I4
s(I379
I1005
tp1108
I15
s(I379
I528
tp1109
I1
s(I31
I379
tp1110
I1
s(I217
I864
tp1111
I1
s(I163
I633
tp1112
I1
s(I392
I986
tp1113
I1
s(I445
I816
tp1114
I2
s(I379
I858
tp1115
I1
s(I379
I385
tp1116
I1
s(I32
I757
tp1117
I1
s(I379
I1198
tp1118
I1
s(I736
I1080
tp1119
I1
s(I379
I1066
tp1120
I1
s(I375
I1219
tp1121
I1
s(I379
I715
tp1122
I1
s(I289
I1276
tp1123
I1
s(I379
I1055
tp1124
I1
s(I1031
I1206
tp1125
I1
s(I48
I1072
tp1126
I1
s(I432
I486
tp1127
I1
s(I379
I696
tp1128
I1
s(I338
I379
tp1129
I6
s(I52
I319
tp1130
I1
s(I1107
I1262
tp1131
I1
s(I464
I1303
tp1132
I1
s(I173
I744
tp1133
I1
s(I379
I994
tp1134
I2
s(I379
I553
tp1135
I1
s(I71
I1123
tp1136
I1
s(I166
I744
tp1137
I2
s(I319
I841
tp1138
I1
s(I489
I1129
tp1139
I6
s(I196
I379
tp1140
I1
s(I623
I687
tp1141
I1
s(I1081
I1210
tp1142
I1
s(I379
I856
tp1143
I1
s(I933
I1012
tp1144
I1
s(I183
I474
tp1145
I1
s(I668
I1229
tp1146
I3
s(I135
I136
tp1147
I1
s(I961
I1268
tp1148
I2
s(I319
I1143
tp1149
I3
s(I379
I704
tp1150
I1
s(I394
I744
tp1151
I1
s(I490
I837
tp1152
I5
s(I364
I379
tp1153
I5
s(I280
I933
tp1154
I1
s(I44
I1231
tp1155
I3
s(I45
I155
tp1156
I1
s(I379
I689
tp1157
I2
s(I379
I974
tp1158
I1
s(I54
I550
tp1159
I1
s(I935
I1259
tp1160
I1
s(I311
I809
tp1161
I1
s(I280
I1194
tp1162
I1
s(I595
I744
tp1163
I2
s(I282
I1016
tp1164
I1
s(I1094
I1095
tp1165
I2
s(I379
I1019
tp1166
I2
s(I379
I558
tp1167
I1
s(I210
I1170
tp1168
I2
s(I379
I872
tp1169
I1
s(I931
I1031
tp1170
I1
s(I765
I1220
tp1171
I1
s(I379
I1212
tp1172
I1
s(I736
I738
tp1173
I1
s(I20
I1179
tp1174
I1
s(I238
I470
tp1175
I1
s(I232
I235
tp1176
I1
s(I379
I729
tp1177
I4
s(I452
I590
tp1178
I1
s(I52
I971
tp1179
I1
s(I1033
I1034
tp1180
I1
s(I309
I354
tp1181
I1
s(I632
I833
tp1182
I1
s(I744
I795
tp1183
I1
s(I279
I361
tp1184
I1
s(I379
I694
tp1185
I1
s(I413
I475
tp1186
I1
s(I395
I1031
tp1187
I1
s(I661
I1108
tp1188
I2
s(I455
I986
tp1189
I1
s(I319
I785
tp1190
I1
s(I379
I551
tp1191
I1
s(I379
I1220
tp1192
I1
s(I71
I1105
tp1193
I1
s(I354
I891
tp1194
I1
s(I337
I562
tp1195
I1
s(I379
I865
tp1196
I2
s(I379
I404
tp1197
I4
s(I582
I1064
tp1198
I1
s(I379
I1205
tp1199
I1
s(I736
I761
tp1200
I5
s(I562
I976
tp1201
I1
s(I1170
I1222
tp1202
I1
s(I266
I891
tp1203
I1
s(I11
I379
tp1204
I1
s(I379
I734
tp1205
I1
s(I343
I379
tp1206
I2
s(I72
I379
tp1207
I1
s(I148
I379
tp1208
I1
s(I22
I276
tp1209
I1
s(I233
I490
tp1210
I1
s(I585
I853
tp1211
I1
s(I837
I1031
tp1212
I1
s(I1155
I1275
tp1213
I1
s(I738
I1027
tp1214
I1
s(I806
I1170
tp1215
I1
s(I379
I905
tp1216
I1
s(I379
I572
tp1217
I5
s(I379
I1245
tp1218
I3
s(I878
I1170
tp1219
I1
s(I408
I1054
tp1220
I1
s(I379
I870
tp1221
I2
s(I379
I429
tp1222
I2
s(I379
I1098
tp1223
I1
s(I623
I744
tp1224
I6
s(I489
I933
tp1225
I1
s(I95
I323
tp1226
I1
s(I632
I736
tp1227
I1
s(I407
I626
tp1228
I1
s(I193
I770
tp1229
I2
s(I379
I727
tp1230
I1
s(I286
I353
tp1231
I1
s(I379
I878
tp1232
I1
s(I623
I857
tp1233
I1
s(I775
I1037
tp1234
I1
s(I243
I814
tp1235
I1
s(I317
I950
tp1236
I1
s(I122
I744
tp1237
I1
s(I323
I1020
tp1238
I1
s(I48
I775
tp1239
I1
s(I34
I802
tp1240
I2
s(I473
I744
tp1241
I1
s(I186
I338
tp1242
I2
s(I81
I178
tp1243
I2
s(I157
I1223
tp1244
I2
s(I379
I565
tp1245
I5
s(I490
I1159
tp1246
I1
s(I472
I902
tp1247
I2
s(I379
I1234
tp1248
I4
s(I19
I933
tp1249
I1
s(I280
I1326
tp1250
I2
s(I392
I562
tp1251
I1
s(I912
I956
tp1252
I1
s(I379
I1091
tp1253
I1
s(I379
I624
tp1254
I1
s(I614
I744
tp1255
I1
s(I246
I379
tp1256
I1
s(I744
I1035
tp1257
I1
s(I379
I748
tp1258
I2
s(I236
I950
tp1259
I1
s(I379
I1072
tp1260
I1
s(I864
I1254
tp1261
I1
s(I345
I379
tp1262
I1
s(I364
I1265
tp1263
I1
s(I1129
I1265
tp1264
I1
s(I134
I475
tp1265
I1
s(I48
I173
tp1266
I1
s(I1168
I1170
tp1267
I1
s(I301
I736
tp1268
I1
s(I379
I605
tp1269
I2
s(I490
I1151
tp1270
I1
s(I160
I1083
tp1271
I1
s(I736
I928
tp1272
I1
s(I219
I379
tp1273
I1
s(I239
I514
tp1274
I1
s(I632
I1265
tp1275
I1
s(I295
I379
tp1276
I2
s(I597
I744
tp1277
I1
s(I379
I903
tp1278
I2
s(I379
I458
tp1279
I1
s(I50
I742
tp1280
I1
s(I379
I1259
tp1281
I1
s(I736
I799
tp1282
I1
s(I164
I280
tp1283
I1
s(I167
I829
tp1284
I1
s(I744
I852
tp1285
I6
s(I707
I709
tp1286
I1
s(I871
I1268
tp1287
I1
s(I379
I884
tp1288
I1
s(I490
I1348
tp1289
I2
s(I1029
I1031
tp1290
I1
s(I36
I1137
tp1291
I1
s(I596
I701
tp1292
I2
s(I374
I379
tp1293
I1
s(I379
I741
tp1294
I1
s(I89
I897
tp1295
I1
s(I901
I958
tp1296
I1
s(I280
I381
tp1297
I2
s(I317
I968
tp1298
I1
s(I319
I489
tp1299
I9
s(I156
I586
tp1300
I1
s(I379
I594
tp1301
I1
s(I986
I988
tp1302
I1
s(I533
I744
tp1303
I1
s(I76
I530
tp1304
I5
s(I736
I1163
tp1305
I1
s(I353
I489
tp1306
I1
s(I371
I1014
tp1307
I1
s(I98
I770
tp1308
I2
s(I379
I451
tp1309
I2
s(I143
I379
tp1310
I1
s(I309
I1017
tp1311
I1
s(I366
I1105
tp1312
I1
s(I129
I355
tp1313
I1
s(I776
I1335
tp1314
I1
s(I91
I1031
tp1315
I2
s(I744
I1258
tp1316
I1
s(I379
I432
tp1317
I6
s(I744
I769
tp1318
I1
s(I927
I1174
tp1319
I5
s(I379
I1105
tp1320
I3
s(I351
I1251
tp1321
I1
s(I632
I757
tp1322
I1
s(I744
I976
tp1323
I1
s(I379
I762
tp1324
I1
s(I753
I1277
tp1325
I1
s(I379
I1189
tp1326
I1
s(I632
I868
tp1327
I1
s(I377
I379
tp1328
I1
s(I319
I632
tp1329
I4
s(I198
I379
tp1330
I1
s(I626
I744
tp1331
I1
s(I1270
I1281
tp1332
I1
s(I623
I997
tp1333
I1
s(I379
I443
tp1334
I1
s(I84
I1036
tp1335
I1
s(I379
I917
tp1336
I20
s(I929
I986
tp1337
I1
s(I366
I379
tp1338
I1
s(I569
I632
tp1339
I1
s(I289
I379
tp1340
I1
s(I292
I347
tp1341
I1
s(I736
I1137
tp1342
I1
s(I601
I1295
tp1343
I1
s(I304
I697
tp1344
I1
s(I379
I1110
tp1345
I1
s(I1031
I1129
tp1346
I1
s(I54
I355
tp1347
I1
s(I22
I791
tp1348
I1
s(I59
I539
tp1349
I1
s(I571
I870
tp1350
I2
s(I65
I602
tp1351
I1
s(I48
I195
tp1352
I1
s(I379
I755
tp1353
I2
s(I141
I582
tp1354
I1
s(I280
I432
tp1355
I2
s(I1170
I1238
tp1356
I1
s(I354
I632
tp1357
I2
s(I744
I1338
tp1358
I1
s(I906
I1129
tp1359
I3
s(I816
I1328
tp1360
I3
s(I379
I608
tp1361
I1
s(I514
I765
tp1362
I1
s(I379
I1281
tp1363
I4
s(I988
I990
tp1364
I1
s(I682
I1297
tp1365
I1
s(I336
I776
tp1366
I1
s(I150
I623
tp1367
I1
s(I259
I1259
tp1368
I1
s(I45
I379
tp1369
I1
s(I379
I938
tp1370
I37
s(I379
I465
tp1371
I1
s(I180
I1193
tp1372
I1
s(I107
I379
tp1373
I1
s(I379
I573
tp1374
I1
s(I243
I757
tp1375
I1
s(I691
I1170
tp1376
I4
s(I598
I791
tp1377
I1
s(I379
I795
tp1378
I1
s(I250
I1082
tp1379
I1
s(I765
I1342
tp1380
I2
s(I379
I1135
tp1381
I1
s(I902
I1182
tp1382
I1
s(I744
I1127
tp1383
I1
s(I379
I648
tp1384
I1
s(I1143
I1170
tp1385
I1
s(I609
I610
tp1386
I5
s(I276
I791
tp1387
I1
s(I668
I932
tp1388
I1
s(I891
I1262
tp1389
I1
s(I379
I633
tp1390
I1
s(I126
I648
tp1391
I1
s(I379
I1286
tp1392
I1
s(I355
I379
tp1393
I4
s(I26
I71
tp1394
I1
s(I48
I472
tp1395
I1
s(I379
I931
tp1396
I27
s(I379
I455
tp1397
I1
s(I329
I379
tp1398
I3
s(I129
I374
tp1399
I1
s(I698
I1236
tp1400
I1
s(I1328
I1347
tp1401
I1
s(I337
I513
tp1402
I1
s(I816
I1207
tp1403
I1
s(I392
I1268
tp1404
I3
s(I379
I784
tp1405
I5
s(I16
I379
tp1406
I1
s(I379
I1124
tp1407
I2
s(I129
I938
tp1408
I1
s(I155
I285
tp1409
I1
s(I317
I1233
tp1410
I1
s(I379
I641
tp1411
I1
s(I529
I902
tp1412
I1
s(I436
I632
tp1413
I1
s(I642
I744
tp1414
I1
s(I184
I379
tp1415
I2
s(I377
I831
tp1416
I1
s(I98
I193
tp1417
I2
s(I464
I470
tp1418
I1
s(I282
I1259
tp1419
I1
s(I379
I971
tp1420
I1
s(I379
I638
tp1421
I4
s(I161
I490
tp1422
I1
s(I379
I1311
tp1423
I1
s(I329
I856
tp1424
I1
s(I329
I1164
tp1425
I1
s(I775
I1268
tp1426
I1
s(I85
I379
tp1427
I4
s(I379
I952
tp1428
I1
s(I379
I495
tp1429
I1
s(I379
I1164
tp1430
I2
s(I736
I1030
tp1431
I1
s(I354
I364
tp1432
I2
s(I409
I546
tp1433
I1
s(I1076
I1170
tp1434
I6
s(I247
I582
tp1435
I1
s(I1246
I1247
tp1436
I1
s(I253
I379
tp1437
I1
s(I241
I776
tp1438
I1
s(I607
I701
tp1439
I3
s(I379
I1134
tp1440
I1
s(I354
I1129
tp1441
I1
s(I239
I523
tp1442
I1
s(I816
I931
tp1443
I1
s(I53
I379
tp1444
I1
s(I626
I838
tp1445
I1
s(I490
I1115
tp1446
I1
s(I723
I1184
tp1447
I1
s(I686
I744
tp1448
I1
s(I318
I1286
tp1449
I1
s(I379
I960
tp1450
I4
s(I379
I631
tp1451
I2
s(I140
I687
tp1452
I1
s(I144
I912
tp1453
I1
s(I956
I1115
tp1454
I1
s(I952
I1265
tp1455
I1
s(I1147
I1324
tp1456
I1
s(I648
I971
tp1457
I1
s(I379
I1029
tp1458
I1
s(I26
I73
tp1459
I1
s(I744
I745
tp1460
I1
s(I379
I945
tp1461
I1
s(I931
I1148
tp1462
I3
s(I804
I1270
tp1463
I2
s(I646
I1008
tp1464
I1
s(I354
I1265
tp1465
I1
s(I1170
I1270
tp1466
I1
s(I364
I1017
tp1467
I1
s(I102
I744
tp1468
I2
s(I379
I814
tp1469
I1
s(I537
I1293
tp1470
I1
s(I752
I969
tp1471
I1
s(I396
I730
tp1472
I1
s(I379
I1138
tp1473
I1
s(I379
I1080
tp1474
I1
s(I704
I816
tp1475
I1
s(I530
I744
tp1476
I5
s(I983
I1208
tp1477
I5
s(I163
I379
tp1478
I2
s(I902
I1080
tp1479
I1
s(I664
I1001
tp1480
I1
s(I239
I379
tp1481
I16
s(I224
I379
tp1482
I1
s(I589
I1291
tp1483
I1
s(I523
I744
tp1484
I1
s(I174
I676
tp1485
I1
s(I379
I985
tp1486
I1
s(I379
I524
tp1487
I2
s(I638
I744
tp1488
I4
s(I92
I290
tp1489
I1
s(I736
I1179
tp1490
I1
s(I330
I379
tp1491
I1
s(I388
I632
tp1492
I3
s(I387
I752
tp1493
I1
s(I151
I379
tp1494
I1
s(I136
I379
tp1495
I1
s(I546
I1262
tp1496
I1
s(I379
I950
tp1497
I1
s(I656
I849
tp1498
I2
s(I452
I938
tp1499
I2
s(I252
I991
tp1500
I3
s(I240
I490
tp1501
I2
s(I349
I1108
tp1502
I3
s(I47
I1028
tp1503
I1
s(I392
I458
tp1504
I1
s(I379
I807
tp1505
I1
s(I379
I1035
tp1506
I2
s(I183
I1281
tp1507
I1
s(I1037
I1183
tp1508
I1
s(I77
I1205
tp1509
I1
s(I280
I319
tp1510
I1
s(I318
I902
tp1511
I1
s(I485
I1054
tp1512
I1
s(I29
I455
tp1513
I1
s(I379
I660
tp1514
I2
s(I752
I1162
tp1515
I1
s(I572
I713
tp1516
I1
s(I489
I896
tp1517
I1
s(I379
I990
tp1518
I1
s(I379
I517
tp1519
I1
s(I87
I379
tp1520
I1
s(I489
I536
tp1521
I1
s(I902
I1107
tp1522
I1
s(I505
I698
tp1523
I1
s(I152
I744
tp1524
I2
s(I279
I874
tp1525
I1
s(I178
I229
tp1526
I2
s(I20
I573
tp1527
I1
s(I92
I1346
tp1528
I2
s(I1268
I1351
tp1529
I1
s(I123
I611
tp1530
I2
s(I795
I1262
tp1531
I1
s(I102
I1281
tp1532
I2
s(I390
I490
tp1533
I1
s(I319
I464
tp1534
I1
s(I392
I490
tp1535
I6
s(I1153
I1267
tp1536
I1
s(I611
I1265
tp1537
I1
s(I632
I917
tp1538
I1
s(I744
I847
tp1539
I2
s(I84
I304
tp1540
I1
s(I138
I831
tp1541
I1
s(I379
I983
tp1542
I5
s(I379
I1339
tp1543
I1
s(I309
I379
tp1544
I1
s(I479
I798
tp1545
I1
s(I52
I785
tp1546
I1
s(I242
I1145
tp1547
I2
s(I370
I379
tp1548
I1
s(I371
I379
tp1549
I2
s(I446
I579
tp1550
I1
s(I379
I836
tp1551
I5
s(I490
I666
tp1552
I1
s(I379
I1192
tp1553
I3
s(I1180
I1189
tp1554
I1
s(I215
I1137
tp1555
I1
s(I7
I736
tp1556
I2
s(I283
I379
tp1557
I1
s(I379
I821
tp1558
I25
s(I489
I744
tp1559
I11
s(I802
I957
tp1560
I2
s(I152
I1273
tp1561
I1
s(I611
I1129
tp1562
I1
s(I188
I609
tp1563
I5
s(I157
I931
tp1564
I1
s(I379
I674
tp1565
I1
s(I468
I623
tp1566
I1
s(I451
I961
tp1567
I2
s(I117
I853
tp1568
I1
s(I50
I379
tp1569
I2
s(I379
I531
tp1570
I1
s(I127
I379
tp1571
I1
s(I456
I1170
tp1572
I1
s(I546
I676
tp1573
I1
s(I379
I861
tp1574
I2
s(I379
I384
tp1575
I1
s(I927
I1222
tp1576
I1
s(I489
I1123
tp1577
I1
s(I92
I625
tp1578
I3
s(I1141
I1174
tp1579
I1
s(I39
I379
tp1580
I1
s(I611
I1025
tp1581
I1
s(I392
I938
tp1582
I2
s(I262
I981
tp1583
I1
s(I1170
I1242
tp1584
I2
s(I67
I744
tp1585
I1
s(I1000
I1022
tp1586
I2
s(I379
I714
tp1587
I1
s(I379
I1054
tp1588
I1
s(I239
I1220
tp1589
I1
s(I888
I1226
tp1590
I1
s(I379
I699
tp1591
I1
s(I452
I744
tp1592
I3
s(I477
I736
tp1593
I2
s(I170
I280
tp1594
I1
s(I232
I392
tp1595
I1
s(I502
I744
tp1596
I1
s(I379
I997
tp1597
I1
s(I379
I552
tp1598
I1
s(I12
I1303
tp1599
I1
s(I379
I1225
tp1600
I1
s(I682
I1180
tp1601
I1
s(I1141
I1262
tp1602
I2
s(I833
I835
tp1603
I1
s(I191
I1031
tp1604
I1
s(I173
I195
tp1605
I1
s(I744
I1153
tp1606
I1
s(I379
I850
tp1607
I2
s(I379
I1190
tp1608
I1
s(I183
I1268
tp1609
I1
s(I490
I503
tp1610
I9
s(I736
I935
tp1611
I1
s(I185
I379
tp1612
I6
s(I261
I379
tp1613
I1
s(I262
I379
tp1614
I1
s(I286
I831
tp1615
I2
s(I744
I1040
tp1616
I2
s(I816
I1011
tp1617
I1
s(I71
I821
tp1618
I3
s(I379
I1127
tp1619
I2
s(I938
I1136
tp1620
I1
s(I598
I1274
tp1621
I1
s(I744
I789
tp1622
I5
s(I121
I588
tp1623
I1
s(I379
I688
tp1624
I5
s(I332
I586
tp1625
I1
s(I379
I381
tp1626
I2
s(I891
I1174
tp1627
I1
s(I1168
I1222
tp1628
I1
s(I379
I1018
tp1629
I5
s(I379
I545
tp1630
I1
s(I470
I1303
tp1631
I1
s(I379
I1022
tp1632
I2
s(I951
I1213
tp1633
I1
s(I349
I490
tp1634
I3
s(I441
I1324
tp1635
I1
s(I76
I744
tp1636
I5
s(I891
I1031
tp1637
I1
s(I121
I379
tp1638
I2
s(I379
I875
tp1639
I1
s(I2
I379
tp1640
I1
s(I59
I736
tp1641
I1
s(I621
I622
tp1642
I1
s(I181
I744
tp1643
I1
s(I379
I472
tp1644
I7
s(I170
I379
tp1645
I2
s(I392
I807
tp1646
I1
s(I869
I1270
tp1647
I1
s(I852
I1170
tp1648
I1
s(I379
I585
tp1649
I4
s(I62
I816
tp1650
I1
s(I802
I967
tp1651
I1
s(I203
I938
tp1652
I1
s(I379
I1273
tp1653
I1
s(I131
I803
tp1654
I1
s(I426
I945
tp1655
I1
s(I316
I816
tp1656
I1
s(I799
I1262
tp1657
I2
s(I157
I831
tp1658
I1
s(I379
I1011
tp1659
I2
s(I379
I550
tp1660
I1
s(I490
I623
tp1661
I1
s(I379
I1223
tp1662
I2
s(I91
I490
tp1663
I2
s(I511
I632
tp1664
I1
s(I220
I270
tp1665
I1
s(I459
I728
tp1666
I1
s(I973
I1257
tp1667
I1
s(I379
I864
tp1668
I23
s(I379
I407
tp1669
I1
s(I87
I816
tp1670
I1
s(I856
I1255
tp1671
I1
s(I1174
I1238
tp1672
I1
s(I347
I632
tp1673
I1
s(I54
I864
tp1674
I1
s(I1170
I1223
tp1675
I2
s(I379
I721
tp1676
I2
s(I124
I449
tp1677
I1
s(I379
I1061
tp1678
I3
s(I379
I1348
tp1679
I2
s(I489
I891
tp1680
I1
s(I560
I1287
tp1681
I1
s(I379
I590
tp1682
I1
s(I490
I967
tp1683
I1
s(I489
I597
tp1684
I1
s(I736
I915
tp1685
I2
s(I364
I1268
tp1686
I2
s(I764
I1005
tp1687
I1
s(I336
I379
tp1688
I4
s(I632
I952
tp1689
I1
s(I45
I285
tp1690
I1
s(I156
I379
tp1691
I1
s(I212
I392
tp1692
I1
s(I986
I1319
tp1693
I1
s(I379
I575
tp1694
I1
s(I490
I598
tp1695
I1
s(I554
I744
tp1696
I1
s(I263
I379
tp1697
I1
s(I379
I889
tp1698
I6
s(I379
I428
tp1699
I2
s(I161
I209
tp1700
I1
s(I379
I1101
tp1701
I3
s(I477
I1005
tp1702
I4
s(I210
I744
tp1703
I1
s(I744
I1019
tp1704
I1
s(I29
I986
tp1705
I1
s(I379
I726
tp1706
I1
s(I490
I959
tp1707
I1
s(I379
I1082
tp1708
I1
s(I73
I379
tp1709
I1
s(I736
I1295
tp1710
I1
s(I902
I1286
tp1711
I1
s(I379
I583
tp1712
I3
s(I250
I837
tp1713
I1
s(I736
I938
tp1714
I15
s(I92
I379
tp1715
I12
s(I286
I623
tp1716
I1
s(I379
I515
tp1717
I1
s(I540
I1164
tp1718
I1
s(I43
I492
tp1719
I1
s(I4
I486
tp1720
I1
s(I379
I897
tp1721
I1
s(I379
I564
tp1722
I1
s(I217
I379
tp1723
I1
s(I92
I957
tp1724
I1
s(I736
I1133
tp1725
I1
s(I4
I379
tp1726
I66
s(I1170
I1190
tp1727
I1
s(I379
I894
tp1728
I3
s(I379
I421
tp1729
I1
s(I490
I791
tp1730
I1
s(I490
I736
tp1731
I9
s(I379
I1090
tp1732
I1
s(I454
I1253
tp1733
I1
s(I95
I1020
tp1734
I1
s(I22
I436
tp1735
I1
s(I632
I744
tp1736
I17
s(I1080
I1170
tp1737
I1
s(I528
I831
tp1738
I1
s(I379
I751
tp1739
I3
s(I931
I1162
tp1740
I1
s(I344
I496
tp1741
I1
s(I379
I1075
tp1742
I1
s(I449
I491
tp1743
I2
s(I917
I1123
tp1744
I1
s(I970
I1167
tp1745
I1
s(I744
I881
tp1746
I1
s(I302
I1012
tp1747
I1
s(I254
I379
tp1748
I1
s(I334
I379
tp1749
I1
s(I590
I938
tp1750
I1
s(I59
I379
tp1751
I1
s(I757
I1270
tp1752
I1
s(I744
I1093
tp1753
I2
s(I556
I955
tp1754
I1
s(I379
I902
tp1755
I25
s(I379
I461
tp1756
I1
s(I379
I1258
tp1757
I2
s(I837
I1082
tp1758
I1
s(I379
I1167
tp1759
I2
s(I449
I1268
tp1760
I1
s(I546
I730
tp1761
I1
s(I379
I887
tp1762
I1
s(I379
I442
tp1763
I1
s(I161
I857
tp1764
I1
s(I364
I891
tp1765
I1
s(I185
I1151
tp1766
I1
s(I915
I1255
tp1767
I1
s(I83
I280
tp1768
I1
s(I146
I831
tp1769
I3
s(I597
I602
tp1770
I1
s(I468
I896
tp1771
I1
s(I457
I902
tp1772
I1
s(I736
I744
tp1773
I29
s(I319
I626
tp1774
I2
s(I379
I597
tp1775
I1
s(I514
I744
tp1776
I1
s(I723
I1135
tp1777
I1
s(I379
I927
tp1778
I12
s(I379
I450
tp1779
I1
s(I451
I1243
tp1780
I2
s(I610
I816
tp1781
I5
s(I776
I1336
tp1782
I1
s(I857
I985
tp1783
I1
s(I379
I1104
tp1784
I1
s(I22
I744
tp1785
I1
s(I915
I956
tp1786
I1
s(I449
I1291
tp1787
I1
s(I379
I765
tp1788
I16
s(I361
I874
tp1789
I1
s(I736
I960
tp1790
I1
s(I379
I1148
tp1791
I3
s(I501
I765
tp1792
I1
s(I764
I1091
tp1793
I1
s(I84
I957
tp1794
I1
s(I379
I618
tp1795
I1
s(I379
I1291
tp1796
I1
s(I93
I379
tp1797
I1
s(I134
I1161
tp1798
I1
s(I379
I916
tp1799
I1
s(I379
I475
tp1800
I1
s(I431
I891
tp1801
I1
s(I379
I1272
tp1802
I1
s(I129
I379
tp1803
I3
s(I160
I891
tp1804
I7
s(I489
I809
tp1805
I1
s(I354
I791
tp1806
I1
s(I1111
I1327
tp1807
I1
s(I379
I773
tp1808
I1
s(I431
I452
tp1809
I2
s(I569
I744
tp1810
I1
s(I379
I1129
tp1811
I77
s(I37
I1282
tp1812
I4
s(I160
I931
tp1813
I1
s(I161
I985
tp1814
I1
s(I611
I642
tp1815
I1
s(I1053
I1170
tp1816
I1
s(I173
I472
tp1817
I1
s(I874
I938
tp1818
I1
s(I284
I765
tp1819
I1
s(I185
I490
tp1820
I1
s(I379
I754
tp1821
I1
s(I490
I915
tp1822
I1
s(I20
I874
tp1823
I1
s(I379
I611
tp1824
I3
s(I490
I1129
tp1825
I1
s(I490
I546
tp1826
I3
s(I379
I1280
tp1827
I1
s(I146
I832
tp1828
I1
s(I744
I757
tp1829
I3
s(I449
I452
tp1830
I5
s(I379
I941
tp1831
I1
s(I195
I744
tp1832
I1
s(I765
I769
tp1833
I1
s(I927
I1270
tp1834
I1
s(I379
I1265
tp1835
I2
s(I293
I347
tp1836
I1
s(I831
I885
tp1837
I1
s(I319
I1130
tp1838
I1
s(I379
I794
tp1839
I1
s(I472
I1170
tp1840
I9
s(I250
I1083
tp1841
I1
s(I125
I744
tp1842
I1
s(I553
I623
tp1843
I1
s(I54
I379
tp1844
I3
s(I1175
I1270
tp1845
I1
s(I1163
I1221
tp1846
I1
s(I258
I267
tp1847
I1
s(I115
I379
tp1848
I1
s(I48
I256
tp1849
I1
s(I379
I651
tp1850
I1
s(I91
I319
tp1851
I2
s(I1068
I1302
tp1852
I1
s(I741
I798
tp1853
I1
s(I276
I1274
tp1854
I1
s(I48
I744
tp1855
I1
s(I379
I632
tp1856
I113
s(I5
I379
tp1857
I1
s(I352
I582
tp1858
I1
s(I484
I1091
tp1859
I1
s(I232
I1276
tp1860
I6
s(I379
I930
tp1861
I1
s(I379
I489
tp1862
I16
s(I379
I1270
tp1863
I15
s(I36
I736
tp1864
I1
s(I623
I1115
tp1865
I1
s(I364
I1129
tp1866
I1
s(I637
I1268
tp1867
I3
s(I909
I1262
tp1868
I1
s(I902
I1174
tp1869
I2
s(I337
I379
tp1870
I1
s(I140
I481
tp1871
I1
s(I74
I1108
tp1872
I2
s(I379
I640
tp1873
I1
s(I71
I431
tp1874
I1
s(I24
I379
tp1875
I2
s(I523
I765
tp1876
I1
s(I1168
I1270
tp1877
I1
s(I160
I651
tp1878
I1
s(I160
I816
tp1879
I2
s(I1005
I1170
tp1880
I2
s(I379
I1310
tp1881
I2
s(I436
I744
tp1882
I2
s(I192
I379
tp1883
I2
s(I145
I379
tp1884
I1
s(I379
I955
tp1885
I2
s(I857
I900
tp1886
I4
s(I452
I933
tp1887
I1
s(I579
I580
tp1888
I1
s(I522
I1106
tp1889
I1
s(I7
I816
tp1890
I2
s(I1025
I1129
tp1891
I1
s(I379
I808
tp1892
I2
s(I17
I816
tp1893
I1
s(I124
I856
tp1894
I1
s(I489
I838
tp1895
I1
s(I32
I379
tp1896
I1
s(I1174
I1182
tp1897
I6
s(I94
I379
tp1898
I1
s(I22
I354
tp1899
I1
s(I131
I1260
tp1900
I1
s(I78
I816
tp1901
I1
s(I765
I881
tp1902
I1
s(I1040
I1289
tp1903
I1
s(I1039
I1214
tp1904
I1
s(I379
I665
tp1905
I1
s(I490
I908
tp1906
I1
s(I1025
I1265
tp1907
I1
s(I327
I676
tp1908
I1
s(I436
I490
tp1909
I2
s(I150
I390
tp1910
I1
s(I6
I379
tp1911
I1
s(I177
I1170
tp1912
I1
s(I379
I963
tp1913
I1
s(I379
I630
tp1914
I1
s(I273
I744
tp1915
I2
s(I1103
I1282
tp1916
I4
s(I132
I744
tp1917
I1
s(I546
I626
tp1918
I1
s(I744
I746
tp1919
I2
s(I816
I1239
tp1920
I1
s(I379
I944
tp1921
I1
s(I160
I363
tp1922
I1
s(I354
I598
tp1923
I1
s(I379
I1156
tp1924
I1
s(I623
I1129
tp1925
I1
s(I357
I931
tp1926
I1
s(I650
I931
tp1927
I1
s(I88
I379
tp1928
I1
s(I490
I994
tp1929
I2
s(I228
I285
tp1930
I1
s(I744
I938
tp1931
I1
s(I379
I1141
tp1932
I4
s(I817
I1057
tp1933
I1
s(I872
I1170
tp1934
I3
s(I379
I670
tp1935
I1
s(I490
I1082
tp1936
I1
s(I195
I1072
tp1937
I1
s(I586
I864
tp1938
I1
s(I435
I449
tp1939
I1
s(I623
I912
tp1940
I1
s(I183
I871
tp1941
I1
s(I54
I744
tp1942
I1
s(I857
I1223
tp1943
I2
s(I210
I857
tp1944
I2
s(I891
I917
tp1945
I1
s(I379
I984
tp1946
I3
s(I379
I1324
tp1947
I2
s(I379
I433
tp1948
I1
s(I354
I835
tp1949
I1
s(I171
I379
tp1950
I1
s(I232
I379
tp1951
I39
s(I379
I508
tp1952
I1
s(I619
I1328
tp1953
I1
s(I477
I1182
tp1954
I2
s(I242
I379
tp1955
I2
s(I392
I459
tp1956
I1
s(I1170
I1262
tp1957
I12
s(I102
I736
tp1958
I3
s(I379
I806
tp1959
I1
s(I126
I971
tp1960
I1
s(I268
I379
tp1961
I1
s(I379
I1034
tp1962
I1
s(I864
I1072
tp1963
I1
s(I562
I986
tp1964
I1
s(I48
I1037
tp1965
I1
s(I83
I379
tp1966
I1
s(I436
I598
tp1967
I1
s(I78
I1177
tp1968
I1
s(I189
I938
tp1969
I1
s(I84
I1269
tp1970
I1
s(I1065
I1323
tp1971
I1
s(I379
I1317
tp1972
I1
s(I458
I925
tp1973
I1
s(I645
I744
tp1974
I1
s(I573
I1179
tp1975
I1
s(I299
I977
tp1976
I1
s(I379
I846
tp1977
I1
s(I379
I501
tp1978
I1
s(I586
I589
tp1979
I1
s(I71
I1031
tp1980
I2
s(I95
I379
tp1981
I1
s(I464
I1328
tp1982
I1
s(I248
I1005
tp1983
I2
s(I379
I831
tp1984
I62
s(I744
I1270
tp1985
I1
s(I379
I1027
tp1986
I1
s(I364
I835
tp1987
I1
s(I436
I1274
tp1988
I1
s(I321
I429
tp1989
I2
s(I272
I470
tp1990
I1
s(I146
I157
tp1991
I1
s(I129
I550
tp1992
I1
s(I210
I632
tp1993
I1
s(I379
I982
tp1994
I3
s(I196
I736
tp1995
I1
s(I490
I520
tp1996
I3
s(I379
I1338
tp1997
I2
s(I736
I864
tp1998
I2
s(I753
I902
tp1999
I1
s(I221
I744
tp2000
I1
s(I864
I1170
tp2001
I3
s(I153
I632
tp2002
I1
s(I33
I71
tp2003
I1
s(I462
I973
tp2004
I1
s(I730
I744
tp2005
I3
s(I379
I394
tp2006
I2
s(I766
I925
tp2007
I1
s(I379
I397
tp2008
I1
s(I166
I847
tp2009
I2
s(I317
I379
tp2010
I2
s(I318
I379
tp2011
I1
s(I378
I379
tp2012
I1
s(I54
I1283
tp2013
I1
s(I864
I1005
tp2014
I1
s(I744
I1274
tp2015
I1
s(I188
I610
tp2016
I5
s(I427
I730
tp2017
I1
s(I379
I591
tp2018
I1
s(I1039
I1170
tp2019
I1
s(I785
I1303
tp2020
I1
s(I796
I993
tp2021
I1
s(I379
I1346
tp2022
I2
s(I290
I379
tp2023
I2
s(I291
I379
tp2024
I1
s(I36
I1280
tp2025
I1
s(I259
I1016
tp2026
I1
s(I629
I793
tp2027
I1
s(I900
I1223
tp2028
I2
s(I744
I1292
tp2029
I14
s(I379
I530
tp2030
I5
s(I379
I728
tp2031
I3
s(I488
I854
tp2032
I1
s(I379
I1331
tp2033
I1
s(I468
I933
tp2034
I1
s(I760
I1208
tp2035
I5
s(I1071
I1170
tp2036
I1
s(I392
I988
tp2037
I1
s(I319
I1108
tp2038
I4
s(I1303
I1328
tp2039
I1
s(I817
I831
tp2040
I1
s(I379
I387
tp2041
I4
s(I390
I392
tp2042
I5
s(I379
I1184
tp2043
I2
s(I361
I938
tp2044
I1
s(I423
I925
tp2045
I1
s(I364
I1025
tp2046
I1
s(I279
I573
tp2047
I1
s(I319
I730
tp2048
I1
s(I217
I589
tp2049
I1
s(I161
I744
tp2050
I3
s(I379
I1041
tp2051
I3
s(I275
I1014
tp2052
I1
s(I226
I379
tp2053
I2
s(I465
I977
tp2054
I1
s(I47
I379
tp2055
I1
s(I379
I698
tp2056
I1
s(I824
I1256
tp2057
I1
s(I582
I1255
tp2058
I3
s(I986
I1012
tp2059
I1
s(I213
I441
tp2060
I1
s(I290
I831
tp2061
I2
s(I280
I388
tp2062
I2
s(I379
I996
tp2063
I1
s(I379
I555
tp2064
I1
s(I909
I1107
tp2065
I1
s(I712
I1297
tp2066
I1
s(I311
I632
tp2067
I1
s(I655
I846
tp2068
I1
s(I379
I1051
tp2069
I2
s(I590
I933
tp2070
I1
s(I81
I229
tp2071
I2
s(I319
I1117
tp2072
I2
s(I157
I1170
tp2073
I4
s(I379
I853
tp2074
I2
s(I379
I408
tp2075
I1
s(I490
I611
tp2076
I2
s(I379
I1209
tp2077
I1
s(I123
I490
tp2078
I2
s(I697
I1036
tp2079
I1
s(I311
I489
tp2080
I1
s(I484
I1005
tp2081
I1
s(I1170
I1289
tp2082
I1
s(I856
I1164
tp2083
I1
s(I481
I902
tp2084
I1
s(I892
I1145
tp2085
I2
s(I131
I490
tp2086
I1
s(I379
I1046
tp2087
I4
s(I71
I489
tp2088
I1
s(I770
I1117
tp2089
I2
s(I1109
I1275
tp2090
I1
s(I379
I691
tp2091
I4
s(I345
I1164
tp2092
I1
s(I270
I379
tp2093
I3
s(I736
I902
tp2094
I1
s(I239
I744
tp2095
I16
s(I510
I816
tp2096
I1
s(I212
I379
tp2097
I1
s(I379
I1021
tp2098
I3
s(I379
I544
tp2099
I1
s(I280
I736
tp2100
I18
s(I550
I744
tp2101
I1
s(I129
I247
tp2102
I1
s(I871
I1281
tp2103
I1
s(I319
I891
tp2104
I1
s(I379
I874
tp2105
I1
s(I379
I1214
tp2106
I4
s(I129
I864
tp2107
I1
s(I379
I731
tp2108
I2
s(I379
I929
tp2109
I1
s(I490
I842
tp2110
I1
s(I163
I1108
tp2111
I1
s(I205
I379
tp2112
I1
s(I632
I835
tp2113
I1
s(I10
I379
tp2114
I1
s(I379
I584
tp2115
I1
s(I104
I736
tp2116
I1
s(I589
I906
tp2117
I6
s(I1246
I1248
tp2118
I1
s(I589
I1270
tp2119
I1
s(I379
I1200
tp2120
I4
s(I131
I802
tp2121
I1
s(I379
I1013
tp2122
I1
s(I373
I379
tp2123
I1
s(I449
I954
tp2124
I4
s(I247
I853
tp2125
I1
s(I379
I569
tp2126
I2
s(I250
I931
tp2127
I1
s(I131
I379
tp2128
I1
s(I623
I1067
tp2129
I1
s(I185
I864
tp2130
I1
s(I494
I1269
tp2131
I1
s(I190
I1170
tp2132
I1
s(I379
I867
tp2133
I1
s(I379
I406
tp2134
I1
s(I490
I802
tp2135
I17
s(I379
I1207
tp2136
I1
s(I1268
I1270
tp2137
I2
s(I632
I1031
tp2138
I1
s(I379
I1111
tp2139
I1
s(I354
I744
tp2140
I8
s(I1128
I1259
tp2141
I1
s(I816
I925
tp2142
I2
s(I559
I831
tp2143
I1
s(I7
I1170
tp2144
I2
s(I296
I1233
tp2145
I1
s(I379
I1060
tp2146
I1
s(I259
I282
tp2147
I1
s(I206
I744
tp2148
I1
s(I562
I929
tp2149
I1
s(I138
I319
tp2150
I1
s(I392
I1027
tp2151
I1
s(I303
I1335
tp2152
I1
s(I92
I816
tp2153
I1
s(I736
I1272
tp2154
I1
s(I867
I1268
tp2155
I1
s(I280
I623
tp2156
I1
s(I581
I1177
tp2157
I1
s(I379
I907
tp2158
I2
s(I364
I952
tp2159
I1
s(I379
I888
tp2160
I1
s(I359
I379
tp2161
I1
s(I747
I1122
tp2162
I1
s(I490
I742
tp2163
I1
s(I379
I1100
tp2164
I1
s(I164
I379
tp2165
I1
s(I1174
I1262
tp2166
I4
s(I379
I1057
tp2167
I4
s(I392
I1211
tp2168
I1
s(I178
I1022
tp2169
I2
s(I490
I956
tp2170
I1
s(I379
I1085
tp2171
I1
s(I256
I379
tp2172
I1
s(I379
I1257
tp2173
I1
s(I332
I379
tp2174
I1
s(I1163
I1224
tp2175
I1
s(I15
I902
tp2176
I1
s(I911
I1066
tp2177
I1
s(I345
I1255
tp2178
I1
s(I380
I757
tp2179
I1
s(I99
I839
tp2180
I1
s(I81
I379
tp2181
I2
s(I1111
I1170
tp2182
I1
s(I157
I379
tp2183
I6
s(I379
I567
tp2184
I1
s(I140
I623
tp2185
I1
s(I379
I1236
tp2186
I4
s(I485
I1262
tp2187
I1
s(I100
I379
tp2188
I3
s(I379
I881
tp2189
I1
s(I172
I979
tp2190
I1
s(I325
I379
tp2191
I1
s(I334
I534
tp2192
I1
s(I379
I750
tp2193
I1
s(I379
I1074
tp2194
I3
s(I455
I562
tp2195
I1
s(I205
I1031
tp2196
I1
s(I228
I1333
tp2197
I1
s(I586
I931
tp2198
I1
s(I864
I1314
tp2199
I1
s(I163
I846
tp2200
I1
s(I736
I1270
tp2201
I2
s(I582
I586
tp2202
I1
s(I632
I967
tp2203
I1
s(I379
I460
tp2204
I1
s(I470
I1328
tp2205
I1
s(I379
I1261
tp2206
I1
s(I242
I892
tp2207
I2
s(I633
I655
tp2208
I1
s(I8
I465
tp2209
I1
s(I48
I1262
tp2210
I1
s(I871
I1270
tp2211
I1
s(I1170
I1182
tp2212
I11
s(I835
I891
tp2213
I1
s(I582
I1043
tp2214
I1
s(I490
I744
tp2215
I41
s(I379
I1114
tp2216
I1
s(I182
I674
tp2217
I1
s(I457
I481
tp2218
I1
s(I474
I1281
tp2219
I1
s(I259
I736
tp2220
I1
s(I319
I1328
tp2221
I1
s(I284
I744
tp2222
I1
s(I84
I765
tp2223
I1
s(I92
I349
tp2224
I1
s(I144
I1115
tp2225
I1
s(I379
I977
tp2226
I1
s(I744
I957
tp2227
I1
s(I639
I849
tp2228
I2
s(I861
I1145
tp2229
I2
s(I296
I379
tp2230
I1
s(I379
I1149
tp2231
I1
s(I390
I1170
tp2232
I1
s(I490
I912
tp2233
I1
s(I240
I736
tp2234
I1
s(I379
I926
tp2235
I4
s(I803
I1260
tp2236
I1
s(I379
I1250
tp2237
I1
s(I219
I585
tp2238
I1
s(I71
I744
tp2239
I11
s(I392
I546
tp2240
I2
s(I279
I938
tp2241
I1
s(I444
I457
tp2242
I1
s(I345
I582
tp2243
I1
s(I379
I1107
tp2244
I1
s(I902
I909
tp2245
I1
s(I170
I736
tp2246
I2
s(I337
I986
tp2247
I1
s(I247
I379
tp2248
I1
s(I379
I764
tp2249
I1
s(I52
I379
tp2250
I5
s(I864
I1270
tp2251
I1
s(I326
I1042
tp2252
I1
s(I534
I535
tp2253
I1
s(I349
I744
tp2254
I1
s(I336
I713
tp2255
I1
s(I140
I902
tp2256
I1
s(I744
I864
tp2257
I4
s(I513
I1319
tp2258
I1
s(I379
I621
tp2259
I1
s(I159
I379
tp2260
I3
s(I220
I379
tp2261
I1
s(I280
I1174
tp2262
I3
s(I449
I1108
tp2263
I3
s(I319
I353
tp2264
I1
s(I379
I919
tp2265
I2
s(I744
I784
tp2266
I1
s(I90
I923
tp2267
I1
s(I379
I1275
tp2268
I1
s(I1088
I1103
tp2269
I4
s(I609
I816
tp2270
I5
s(I166
I831
tp2271
I2
s(I831
I847
tp2272
I2
s(I215
I1280
tp2273
I1
s(I931
I957
tp2274
I1
s(I379
I1128
tp2275
I1
s(I449
I1254
tp2276
I1
s(I379
I1170
tp2277
I122
s(I137
I379
tp2278
I1
s(I319
I392
tp2279
I1
s(I744
I1122
tp2280
I1
s(I379
I757
tp2281
I25
s(I214
I379
tp2282
I1
s(I765
I1129
tp2283
I1
s(I736
I984
tp2284
I3
s(I864
I1165
tp2285
I1
s(I91
I595
tp2286
I2
s(I272
I1303
tp2287
I1
s(I633
I1037
tp2288
I1
s(I744
I1340
tp2289
I1
s(I305
I379
tp2290
I1
s(I379
I1283
tp2291
I1
s(I20
I279
tp2292
I1
s(I379
I1097
tp2293
I1
s(I408
I1262
tp2294
I1
s(I379
I940
tp2295
I1
s(I379
I467
tp2296
I1
s(I490
I1273
tp2297
I1
s(I379
I1264
tp2298
I2
s(I52
I1134
tp2299
I1
s(I6
I66
tp2300
I1
s(I62
I63
tp2301
I1
s(I52
I1328
tp2302
I1
s(I765
I1340
tp2303
I1
s(I379
I1121
tp2304
I1
s(I1150
I1209
tp2305
I1
s(I140
I933
tp2306
I1
s(I744
I1129
tp2307
I57
s(I379
I650
tp2308
I3
s(I345
I449
tp2309
I1
s(I92
I891
tp2310
I1
s(I864
I931
tp2311
I1
s(I280
I554
tp2312
I1
s(I867
I869
tp2313
I2
s(I1132
I1349
tp2314
I1
s(I624
I632
tp2315
I1
s(I490
I554
tp2316
I1
s(I379
I1304
tp2317
I3
s(I256
I1262
tp2318
I1
s(I1029
I1298
tp2319
I1
s(I736
I1170
tp2320
I19
s(I902
I1141
tp2321
I1
s(I379
I396
tp2322
I1
s(I1091
I1170
tp2323
I1
s(I390
I738
tp2324
I1
s(I744
I765
tp2325
I16
s(I379
I933
tp2326
I11
s(I123
I744
tp2327
I2
s(I931
I986
tp2328
I1
s(I379
I1161
tp2329
I1
s(I736
I829
tp2330
I1
s(I632
I1307
tp2331
I1
s(I379
I1227
tp2332
I1
s(I280
I1299
tp2333
I1
s(I379
I786
tp2334
I9
s(I379
I1126
tp2335
I1
s(I185
I589
tp2336
I1
s(I361
I379
tp2337
I1
s(I104
I539
tp2338
I1
s(I124
I582
tp2339
I1
s(I485
I744
tp2340
I1
s(I417
I418
tp2341
I1
s(I861
I892
tp2342
I2
s(I454
I1096
tp2343
I1
s(I169
I239
tp2344
I1
s(I632
I891
tp2345
I1
s(I392
I736
tp2346
I9
s(I379
I973
tp2347
I1
s(I675
I744
tp2348
I1
s(I378
I744
tp2349
I1
s(I379
I1297
tp2350
I1
s(I736
I837
tp2351
I2
s(I71
I906
tp2352
I1
s(I462
I1252
tp2353
I1
s(I419
I816
tp2354
I1
s(I379
I484
tp2355
I1
s(I385
I736
tp2356
I1
s(I744
I1209
tp2357
I1
s(I379
I954
tp2358
I4
s(I379
I481
tp2359
I1
s(I468
I1067
tp2360
I1
s(I241
I957
tp2361
I1
s(I257
I379
tp2362
I1
s(I134
I379
tp2363
I1
s(I300
I319
tp2364
I1
s(I263
I784
tp2365
I1
s(I379
I811
tp2366
I1
s(I379
I1151
tp2367
I1
s(I200
I379
tp2368
I1
s(I953
I1289
tp2369
I1
s(I460
I1059
tp2370
I1
s(I449
I857
tp2371
I3
s(I194
I379
tp2372
I1
s(I455
I1319
tp2373
I1
s(I12
I470
tp2374
I1
s(I276
I490
tp2375
I1
s(I101
I379
tp2376
I1
s(I102
I379
tp2377
I3
s(I736
I1221
tp2378
I1
s(I379
I962
tp2379
I1
s(I379
I521
tp2380
I1
s(I88
I277
tp2381
I1
s(I659
I683
tp2382
I7
s(I92
I146
tp2383
I1
s(I744
I1312
tp2384
I1
s(I124
I379
tp2385
I1
s(I379
I947
tp2386
I1
s(I379
I486
tp2387
I1
s(I379
I1159
tp2388
I1
s(I160
I1310
tp2389
I1
s(I496
I1134
tp2390
I1
s(I744
I933
tp2391
I2
s(I444
I902
tp2392
I1
s(I319
I679
tp2393
I3
s(I379
I800
tp2394
I1
s(I472
I691
tp2395
I4
s(I379
I1140
tp2396
I1
s(I1093
I1095
tp2397
I2
s(I280
I837
tp2398
I1
s(I410
I1257
tp2399
I1
s(I744
I820
tp2400
I2
s(I122
I703
tp2401
I1
s(I379
I657
tp2402
I5
s(I92
I832
tp2403
I1
s(I623
I915
tp2404
I5
s(I736
I1224
tp2405
I1
s(I491
I627
tp2406
I2
s(I857
I1170
tp2407
I4
s(I379
I1327
tp2408
I1
s(I379
I863
tp2409
I1
s(I441
I858
tp2410
I1
s(I392
I637
tp2411
I3
s(I209
I857
tp2412
I1
s(I354
I952
tp2413
I1
s(I379
I511
tp2414
I1
s(I490
I1245
tp2415
I1
s(I379
I1180
tp2416
I2
s(I8
I379
tp2417
I1
s(I858
I1147
tp2418
I1
s(I703
I744
tp2419
I1
s(I379
I825
tp2420
I3
s(I379
I1037
tp2421
I4
s(I589
I1351
tp2422
I1
s(I250
I736
tp2423
I1
s(I379
I970
tp2424
I1
s(I63
I579
tp2425
I1
s(I816
I1069
tp2426
I1
s(I379
I662
tp2427
I1
s(I270
I1270
tp2428
I3
s(I272
I464
tp2429
I1
s(I347
I379
tp2430
I1
s(I886
I1243
tp2431
I1
s(I152
I379
tp2432
I6
s(I117
I247
tp2433
I1
s(I379
I976
tp2434
I1
s(I379
I519
tp2435
I1
s(I379
I1316
tp2436
I1
s(I736
I874
tp2437
I1
s(I379
I671
tp2438
I1
s(I379
I1268
tp2439
I12
s(I611
I1009
tp2440
I1
s(I319
I838
tp2441
I1
s(I379
I833
tp2442
I1
s(I175
I632
tp2443
I1
s(I736
I994
tp2444
I2
s(I477
I1174
tp2445
I2
s(I744
I915
tp2446
I2
s(I431
I1268
tp2447
I2
s(I392
I1170
tp2448
I8
s(I379
I830
tp2449
I2
s(I431
I489
tp2450
I1
s(I354
I611
tp2451
I1
s(I379
I1026
tp2452
I1
s(I199
I617
tp2453
I1
s(I935
I1128
tp2454
I1
s(I239
I879
tp2455
I1
s(I52
I464
tp2456
I1
s(I744
I802
tp2457
I2
s(I744
I1100
tp2458
I1
s(I57
I423
tp2459
I2
s(I157
I857
tp2460
I4
s(I379
I540
tp2461
I1
s(I820
I836
tp2462
I5
s(I160
I744
tp2463
I37
s(I191
I379
tp2464
I1
s(I1247
I1248
tp2465
I1
s(I637
I1087
tp2466
I3
s(I506
I905
tp2467
I1
s(I452
I1136
tp2468
I1
s(I161
I1270
tp2469
I1
s(I379
I1194
tp2470
I1
s(I286
I319
tp2471
I1
s(I704
I744
tp2472
I1
s(I392
I933
tp2473
I1
s(I379
I823
tp2474
I2
s(I252
I379
tp2475
I3
s(I152
I490
tp2476
I1
s(I169
I744
tp2477
I1
s(I1254
I1270
tp2478
I1
s(I48
I864
tp2479
I1
s(I868
I891
tp2480
I1
s(I144
I623
tp2481
I1
s(I326
I379
tp2482
I1
s(I379
I820
tp2483
I7
s(I96
I130
tp2484
I1
s(I744
I979
tp2485
I1
s(I498
I572
tp2486
I2
s(I319
I789
tp2487
I5
s(I379
I1006
tp2488
I1
s(I379
I533
tp2489
I1
s(I195
I864
tp2490
I1
s(I379
I1020
tp2491
I1
s(I185
I1254
tp2492
I1
s(I165
I632
tp2493
I1
s(I299
I379
tp2494
I1
s(I232
I1223
tp2495
I2
s(I129
I582
tp2496
I1
s(I379
I386
tp2497
I1
s(I472
I736
tp2498
I4
s(I379
I1187
tp2499
I1
s(I436
I891
tp2500
I2
s(I736
I1083
tp2501
I1
s(I337
I455
tp2502
I1
s(I600
I816
tp2503
I1
s(I379
I1040
tp2504
I2
s(I208
I1170
tp2505
I1
s(I498
I744
tp2506
I4
s(I25
I597
tp2507
I1
s(I4
I432
tp2508
I1
s(I66
I379
tp2509
I1
s(I67
I379
tp2510
I1
s(I801
I1330
tp2511
I1
s(I627
I1193
tp2512
I1
s(I277
I379
tp2513
I1
s(I632
I933
tp2514
I2
s(I319
I1231
tp2515
I3
s(I562
I1319
tp2516
I1
s(I325
I582
tp2517
I1
s(I235
I379
tp2518
I1
s(I91
I837
tp2519
I1
s(I55
I379
tp2520
I1
s(I40
I379
tp2521
I1
s(I354
I868
tp2522
I1
s(I906
I1108
tp2523
I1
s(I379
I852
tp2524
I6
s(I379
I411
tp2525
I1
s(I379
I1208
tp2526
I5
s(I183
I1270
tp2527
I1
s(I986
I1130
tp2528
I1
s(I33
I394
tp2529
I1
s(I432
I1326
tp2530
I2
s(I161
I736
tp2531
I1
s(I379
I1065
tp2532
I1
s(I329
I582
tp2533
I2
s(I489
I632
tp2534
I1
s(I572
I888
tp2535
I1
s(I632
I1129
tp2536
I4
s(I744
I791
tp2537
I1
s(I319
I595
tp2538
I1
s(I379
I690
tp2539
I2
s(I623
I956
tp2540
I1
s(I736
I1259
tp2541
I1
s(I117
I203
tp2542
I1
s(I62
I1177
tp2543
I1
s(I157
I251
tp2544
I1
s(I140
I489
tp2545
I1
s(I251
I931
tp2546
I1
s(I324
I957
tp2547
I1
s(I985
I1270
tp2548
I1
s(I185
I862
tp2549
I1
s(I474
I1268
tp2550
I1
s(I472
I1182
tp2551
I4
s(I319
I1093
tp2552
I2
s(I379
I877
tp2553
I1
s(I90
I744
tp2554
I1
s(I379
I1201
tp2555
I2
s(I632
I1025
tp2556
I1
s(I90
I379
tp2557
I1
s(I955
I1236
tp2558
I1
s(I260
I705
tp2559
I2
s(I632
I1262
tp2560
I1
s(I91
I632
tp2561
I1
s(I1109
I1155
tp2562
I1
s(I355
I744
tp2563
I2
s(I869
I1268
tp2564
I1
s(I965
I1013
tp2565
I1
s(I929
I1319
tp2566
I1
s(I152
I1151
tp2567
I1
s(I1290
I1300
tp2568
I1
s(I816
I1106
tp2569
I1
s(I582
I938
tp2570
I1
s(I736
I1174
tp2571
I8
s(I195
I256
tp2572
I1
s(I379
I1241
tp2573
I1
s(I18
I379
tp2574
I1
s(I379
I730
tp2575
I9
s(I489
I521
tp2576
I1
s(I808
I1129
tp2577
I1
s(I354
I1229
tp2578
I3
s(I423
I816
tp2579
I1
s(I449
I1255
tp2580
I1
s(I816
I1177
tp2581
I1
s(I379
I866
tp2582
I2
s(I379
I425
tp2583
I1
s(I490
I803
tp2584
I1
s(I379
I1206
tp2585
I1
s(I1031
I1033
tp2586
I1
s(I238
I785
tp2587
I1
s(I186
I379
tp2588
I2
s(I744
I1150
tp2589
I1
s(I85
I631
tp2590
I2
s(I379
I723
tp2591
I11
s(I87
I931
tp2592
I1
s(I213
I1175
tp2593
I1
s(I11
I627
tp2594
I1
s(I379
I576
tp2595
I2
s(I655
I1037
tp2596
I1
s(I760
I983
tp2597
I5
s(I937
I1140
tp2598
I1
s(I736
I1273
tp2599
I1
s(I479
I741
tp2600
I1
s(I351
I816
tp2601
I1
s(I379
I906
tp2602
I39
s(I379
I561
tp2603
I1
s(I10
I160
tp2604
I1
s(I358
I391
tp2605
I1
s(I199
I1046
tp2606
I1
s(I736
I1128
tp2607
I1
s(I319
I885
tp2608
I1
s(I12
I238
tp2609
I1
s(I379
I430
tp2610
I1
s(I857
I1138
tp2611
I1
s(I379
I1103
tp2612
I4
s(I915
I954
tp2613
I2
s(I188
I816
tp2614
I5
s(I697
I1062
tp2615
I1
s(I165
I436
tp2616
I1
s(I259
I379
tp2617
I1
s(I354
I736
tp2618
I1
s(I319
I407
tp2619
I1
s(I744
I1031
tp2620
I1
s(I84
I744
tp2621
I1
s(I379
I744
tp2622
I1366
s(I490
I957
tp2623
I2
s(I159
I449
tp2624
I3
s(I379
I1084
tp2625
I3
s(I1088
I1282
tp2626
I4
s(I379
I587
tp2627
I1
s(I736
I1281
tp2628
I2
s(I367
I379
tp2629
I1
s(I352
I379
tp2630
I1
s(I280
I957
tp2631
I1
s(I176
I1252
tp2632
I1
s(I799
I900
tp2633
I1
s(I736
I1229
tp2634
I1
s(I120
I816
tp2635
I1
s(I744
I867
tp2636
I1
s(I309
I835
tp2637
I1
s(I290
I832
tp2638
I1
s(I589
I1255
tp2639
I1
s(I39
I48
tp2640
I1
s(I901
I1270
tp2641
I1
s(I279
I379
tp2642
I1
s(I264
I379
tp2643
I1
s(I339
I673
tp2644
I1
s(I379
I899
tp2645
I1
s(I340
I379
tp2646
I1
s(I91
I1300
tp2647
I1
s(I165
I624
tp2648
I1
s(I280
I742
tp2649
I1
s(I8
I299
tp2650
I1
s(I744
I1279
tp2651
I3
s(I379
I423
tp2652
I4
s(I124
I1255
tp2653
I1
s(I89
I379
tp2654
I1
s(I165
I379
tp2655
I1
s(I334
I535
tp2656
I1
s(I390
I997
tp2657
I1
s(I209
I623
tp2658
I1
s(I9
I1069
tp2659
I1
s(I246
I1113
tp2660
I1
s(I379
I737
tp2661
I1
s(I108
I379
tp2662
I1
s(I290
I319
tp2663
I1
s(I259
I1128
tp2664
I1
s(I299
I465
tp2665
I1
s(I379
I606
tp2666
I1
s(I736
I931
tp2667
I2
s(I364
I489
tp2668
I2
s(I379
I1314
tp2669
I1
s(I20
I379
tp2670
I1
s(I1268
I1281
tp2671
I1
s(I757
I1268
tp2672
I1
s(I722
I950
tp2673
I1
s(I379
I920
tp2674
I1
s(I379
I463
tp2675
I1
s(I379
I879
tp2676
I1
s(I213
I379
tp2677
I1
s(I379
I1260
tp2678
I1
s(I379
I568
tp2679
I1
s(I117
I938
tp2680
I1
s(I152
I546
tp2681
I1
s(I355
I550
tp2682
I1
s(I62
I446
tp2683
I1
s(I744
I834
tp2684
I1
s(I379
I777
tp2685
I1
s(I379
I444
tp2686
I1
s(I280
I891
tp2687
I1
s(I490
I745
tp2688
I1
s(I379
I736
tp2689
I413
s(I933
I938
tp2690
I3
s(I498
I1228
tp2691
I1
s(I379
I742
tp2692
I7
s(I185
I1273
tp2693
I1
s(I235
I736
tp2694
I1
s(I251
I1031
tp2695
I1
s(I474
I869
tp2696
I1
s(I703
I1108
tp2697
I1
s(I683
I1170
tp2698
I2
s(I390
I623
tp2699
I1
s(I121
I938
tp2700
I1
s(I379
I599
tp2701
I1
s(I238
I1328
tp2702
I1
s(I623
I985
tp2703
I1
s(I494
I754
tp2704
I1
s(I319
I379
tp2705
I31
s(I304
I379
tp2706
I1
s(I379
I913
tp2707
I1
s(I379
I452
tp2708
I12
s(I50
I668
tp2709
I1
s(I478
I543
tp2710
I1
s(I379
I498
tp2711
I10
s(I838
I841
tp2712
I1
s(I1170
I1174
tp2713
I17
s(I379
I782
tp2714
I1
s(I105
I1090
tp2715
I1
s(I1082
I1245
tp2716
I1
s(I130
I980
tp2717
I1
s(I646
I931
tp2718
I1
s(I923
I1150
tp2719
I1
s(I178
I1000
tp2720
I2
s(I173
I379
tp2721
I1
s(I468
I687
tp2722
I1
s(I236
I968
tp2723
I1
s(I952
I1129
tp2724
I1
s(I98
I1117
tp2725
I2
s(I160
I232
tp2726
I3
s(I556
I1102
tp2727
I1
s(I431
I606
tp2728
I1
s(I203
I247
tp2729
I1
s(I219
I853
tp2730
I1
s(I582
I864
tp2731
I2
s(I379
I1293
tp2732
I2
s(I255
I379
tp2733
I2
s(I60
I379
tp2734
I1
s(I133
I603
tp2735
I1
s(I379
I1043
tp2736
I1
s(I744
I752
tp2737
I2
s(I319
I831
tp2738
I7
s(I379
I477
tp2739
I7
s(I51
I1170
tp2740
I1
s(I216
I816
tp2741
I1
s(I660
I857
tp2742
I2
s(I238
I272
tp2743
I1
s(I478
I1283
tp2744
I1
s(I167
I379
tp2745
I4
s(I210
I900
tp2746
I2
s(I407
I546
tp2747
I1
s(I379
I775
tp2748
I2
s(I140
I468
tp2749
I1
s(I490
I731
tp2750
I2
s(I379
I1131
tp2751
I1
s(I364
I490
tp2752
I3
s(I41
I280
tp2753
I1
s(I668
I742
tp2754
I2
s(I524
I744
tp2755
I2
s(I319
I395
tp2756
I1
s(I835
I1017
tp2757
I1
s(I379
I1083
tp2758
I1
s(I489
I687
tp2759
I1
s(I866
I1143
tp2760
I1
s(I319
I1206
tp2761
I1
s(I1165
I1170
tp2762
I1
s(I390
I744
tp2763
I2
s(I379
I1282
tp2764
I4
s(I539
I736
tp2765
I1
s(I280
I1182
tp2766
I3
s(I961
I1243
tp2767
I2
s(I319
I1031
tp2768
I2
s(I906
I1255
tp2769
I1
s(I379
I943
tp2770
I1
s(I490
I1325
tp2771
I1
s(I119
I379
tp2772
I3
s(I379
I1267
tp2773
I1
s(I736
I807
tp2774
I1
s(I379
I1224
tp2775
I1
s(I736
I1035
tp2776
I1
s(I449
I899
tp2777
I1
s(I84
I239
tp2778
I1
s(I379
I796
tp2779
I1
s(I931
I933
tp2780
I1
s(I379
I1120
tp2781
I1
s(I96
I980
tp2782
I1
s(I316
I925
tp2783
I1
s(I1005
I1091
tp2784
I1
s(I744
I1130
tp2785
I1
s(I173
I1072
tp2786
I1
s(I379
I653
tp2787
I1
s(I821
I836
tp2788
I5
s(I37
I1103
tp2789
I4
s(I915
I1133
tp2790
I1
s(I867
I868
tp2791
I1
s(I891
I1298
tp2792
I1
s(I744
I879
tp2793
I1
s(I319
I619
tp2794
I1
s(I379
I634
tp2795
I1
s(I237
I632
tp2796
I1
s(I172
I744
tp2797
I1
s(I627
I954
tp2798
I2
s(I250
I554
tp2799
I1
s(I449
I1351
tp2800
I1
s(I353
I623
tp2801
I1
s(I979
I1218
tp2802
I1
s(I379
I932
tp2803
I1
s(I379
I491
tp2804
I2
s(I512
I1007
tp2805
I1
s(I130
I379
tp2806
I1
s(I354
I1274
tp2807
I1
s(I744
I1218
tp2808
I1
s(I179
I1106
tp2809
I1
s(I379
I789
tp2810
I5
s(I931
I938
tp2811
I4
s(I379
I1145
tp2812
I2
s(I200
I373
tp2813
I1
s(I84
I494
tp2814
I1
s(I439
I654
tp2815
I1
s(I410
I1252
tp2816
I1
s(I392
I423
tp2817
I1
s(I744
I1105
tp2818
I1
s(I176
I462
tp2819
I1
s(I785
I1328
tp2820
I1
s(I34
I1031
tp2821
I2
s(I833
I1017
tp2822
I1
s(I226
I306
tp2823
I1
s(I816
I1347
tp2824
I1
s(I379
I972
tp2825
I1
s(I379
I627
tp2826
I3
s(I659
I1262
tp2827
I11
s(I679
I1231
tp2828
I3
s(I375
I379
tp2829
I2
s(I472
I1174
tp2830
I6
s(I8
I977
tp2831
I1
s(I901
I1281
tp2832
I1
s(I702
I1081
tp2833
I1
s(I255
I1297
tp2834
I1
s(I444
I481
tp2835
I1
s(I155
I379
tp2836
I1
s(I213
I665
tp2837
I1
s(I50
I1229
tp2838
I1
s(I379
I1153
tp2839
I1
s(I353
I379
tp2840
I2
s(I744
I1225
tp2841
I1
s(I107
I258
tp2842
I1
s(I379
I810
tp2843
I1
s(I90
I1150
tp2844
I1
s(I896
I933
tp2845
I1
s(I379
I1150
tp2846
I1
s(I319
I1303
tp2847
I1
s(I114
I379
tp2848
I1
s(I449
I856
tp2849
I1
s(I619
I785
tp2850
I1
s(I379
I667
tp2851
I1
s(I52
I344
tp2852
I1
s(I513
I986
tp2853
I1
s(I1031
I1307
tp2854
I1
s(I553
I744
tp2855
I1
s(I75
I931
tp2856
I1
s(I379
I1139
tp2857
I1
s(I152
I185
tp2858
I1
s(I392
I744
tp2859
I19
s(I279
I736
tp2860
I1
s(I284
I379
tp2861
I1
s(I379
I965
tp2862
I1
s(I15
I1107
tp2863
I1
s(I144
I915
tp2864
I1
s(I71
I232
tp2865
I2
s(I185
I823
tp2866
I2
s(I92
I1029
tp2867
I1
s(I744
I1074
tp2868
I1
s(I33
I379
tp2869
I1
s(I52
I126
tp2870
I1
s(I379
I1158
tp2871
I1
s(I239
I1340
tp2872
I1
s(I129
I325
tp2873
I1
s(I62
I580
tp2874
I1
s(I744
I1072
tp2875
I1
s(I67
I68
tp2876
I1
s(I379
I803
tp2877
I1
s(I1301
I1304
tp2878
I2
s(I490
I866
tp2879
I1
s(I87
I1011
tp2880
I1
s(I436
I791
tp2881
I1
s(I201
I379
tp2882
I1
s(I915
I1043
tp2883
I1
s(I21
I379
tp2884
I10
s(I1093
I1094
tp2885
I2
s(I390
I938
tp2886
I1
s(I744
I821
tp2887
I8
s(I262
I1045
tp2888
I1
s(I379
I656
tp2889
I2
s(I393
I1170
tp2890
I1
s(I12
I52
tp2891
I1
s(I109
I744
tp2892
I2
s(I510
I787
tp2893
I1
s(I189
I943
tp2894
I1
s(I23
I647
tp2895
I1
s(I139
I816
tp2896
I1
s(I84
I986
tp2897
I1
s(I657
I744
tp2898
I1
s(I379
I513
tp2899
I2
s(I306
I364
tp2900
I1
s(I379
I1326
tp2901
I2
s(I642
I831
tp2902
I1
s(I379
I1269
tp2903
I1
s(I833
I868
tp2904
I1
s(I323
I379
tp2905
I1
s(I632
I1017
tp2906
I1
s(I449
I627
tp2907
I2
s(I379
I843
tp2908
I1
s(I12
I619
tp2909
I1
s(I931
I1008
tp2910
I1
s(I379
I1183
tp2911
I1
s(I71
I1032
tp2912
I1
s(I534
I736
tp2913
I1
s(I75
I646
tp2914
I1
s(I902
I1262
tp2915
I8
s(I482
I851
tp2916
I1
s(I121
I452
tp2917
I1
s(I146
I736
tp2918
I1
s(I141
I986
tp2919
I1
s(I239
I284
tp2920
I1
s(I169
I765
tp2921
I1
s(I938
I1179
tp2922
I1
s(I226
I364
tp2923
I1
s(I744
I1094
tp2924
I2
s(I379
I681
tp2925
I2
s(I837
I994
tp2926
I1
s(I611
I831
tp2927
I3
s(I71
I73
tp2928
I1
s(I92
I831
tp2929
I1
s(I256
I864
tp2930
I1
s(I187
I379
tp2931
I2
s(I484
I1170
tp2932
I1
s(I248
I379
tp2933
I6
s(I617
I1046
tp2934
I1
s(I379
I979
tp2935
I1
s(I379
I518
tp2936
I1
s(I379
I1319
tp2937
I1
s(I736
I875
tp2938
I1
s(I423
I459
tp2939
I1
s(I392
I976
tp2940
I1
s(I232
I1242
tp2941
I2
s(I379
I832
tp2942
I1
s(I379
I503
tp2943
I9
s(I160
I379
tp2944
I83
s(I399
I1091
tp2945
I1
s(I1108
I1153
tp2946
I1
s(I120
I1347
tp2947
I1
s(I379
I817
tp2948
I1
s(I175
I744
tp2949
I2
s(I489
I831
tp2950
I1
s(I236
I317
tp2951
I1
s(I282
I379
tp2952
I1
s(I241
I379
tp2953
I1
s(I632
I809
tp2954
I1
s(I464
I619
tp2955
I1
s(I744
I1101
tp2956
I2
s(I379
I686
tp2957
I1
s(I166
I611
tp2958
I2
s(I900
I1242
tp2959
I2
s(I153
I379
tp2960
I1
s(I65
I489
tp2961
I1
s(I725
I1323
tp2962
I1
s(I379
I1000
tp2963
I2
s(I379
I543
tp2964
I1
s(I379
I1340
tp2965
I1
s(I71
I1129
tp2966
I2
s(I111
I379
tp2967
I1
s(I96
I379
tp2968
I1
s(I102
I109
tp2969
I2
s(I172
I379
tp2970
I1
s(I449
I589
tp2971
I3
s(I379
I857
tp2972
I11
s(I124
I329
tp2973
I1
s(I490
I665
tp2974
I2
s(I623
I831
tp2975
I1
s(I864
I1105
tp2976
I1
s(I744
I923
tp2977
I1
s(I176
I973
tp2978
I1
s(I485
I675
tp2979
I1
s(I217
I586
tp2980
I1
s(I379
I1050
tp2981
I1
s(I127
I744
tp2982
I1
s(I240
I831
tp2983
I3
s(I1054
I1262
tp2984
I1
s(I122
I319
tp2985
I1
s(I986
I1003
tp2986
I1
s(I71
I394
tp2987
I2
s(I52
I1186
tp2988
I2
s(I215
I736
tp2989
I1
s(I546
I1159
tp2990
I1
s(I691
I927
tp2991
I4
s(I379
I993
tp2992
I1
s(I379
I532
tp2993
I1
s(I379
I1333
tp2994
I1
s(I52
I238
tp2995
I1
s(I573
I736
tp2996
I1
s(I387
I744
tp2997
I2
s(I392
I990
tp2998
I1
s(I300
I831
tp2999
I1
s(I449
I582
tp3000
I2
s(I598
I744
tp3001
I1
s(I379
I862
tp3002
I1
s(I379
I389
tp3003
I1
s(I379
I1186
tp3004
I2
s(I475
I1161
tp3005
I1
s(I379
I1179
tp3006
I1
s(I329
I449
tp3007
I1
s(I757
I891
tp3008
I1
s(I449
I1164
tp3009
I1
s(I173
I1262
tp3010
I1
s(I379
I719
tp3011
I2
s(I307
I379
tp3012
I1
s(I338
I662
tp3013
I1
s(I273
I319
tp3014
I2
s(I632
I1123
tp3015
I2
s(I799
I931
tp3016
I1
s(I248
I1088
tp3017
I4
s(I74
I744
tp3018
I2
s(I265
I379
tp3019
I1
s(I986
I1270
tp3020
I1
s(I98
I319
tp3021
I2
s(I632
I934
tp3022
I1
s(I891
I1170
tp3023
I1
s(I653
I730
tp3024
I1
s(I379
I557
tp3025
I2
s(I490
I632
tp3026
I8
s(I379
I1226
tp3027
I1
s(I799
I1162
tp3028
I1
s(I316
I766
tp3029
I1
s(I229
I1022
tp3030
I2
s(I379
I855
tp3031
I1
s(I379
I410
tp3032
I1
s(I472
I744
tp3033
I1
s(I379
I1211
tp3034
I1
s(I477
I927
tp3035
I2
s(I573
I874
tp3036
I1
s(I243
I379
tp3037
I1
s(I392
I852
tp3038
I1
s(I619
I1303
tp3039
I1
s(I48
I379
tp3040
I4
s(I696
I1154
tp3041
I1
s(I379
I1064
tp3042
I1
s(I379
I1309
tp3043
I2
s(I379
I988
tp3044
I1
s(I29
I562
tp3045
I1
s(I319
I594
tp3046
I2
s(I379
I693
tp3047
I1
s(I490
I1031
tp3048
I5
s(I379
I1004
tp3049
I1
s(I609
I1243
tp3050
I2
s(I71
I632
tp3051
I2
s(I71
I1298
tp3052
I1
s(I441
I1147
tp3053
I1
s(I319
I345
tp3054
I1
s(I379
I1023
tp3055
I1
s(I379
I546
tp3056
I37
s(I765
I879
tp3057
I1
s(I857
I1270
tp3058
I1
s(I63
I446
tp3059
I1
s(I589
I864
tp3060
I2
s(I953
I1040
tp3061
I1
s(I156
I332
tp3062
I1
s(I280
I1245
tp3063
I1
s(I78
I581
tp3064
I1
s(I62
I78
tp3065
I1
s(I1170
I1208
tp3066
I5
s(I816
I1251
tp3067
I1
s(I379
I876
tp3068
I1
s(I30
I744
tp3069
I1
s(I419
I910
tp3070
I1
s(I489
I906
tp3071
I1
s(I241
I1336
tp3072
I1
s(I957
I1336
tp3073
I1
s(I117
I582
tp3074
I1
s(I704
I766
tp3075
I1
s(I831
I1057
tp3076
I1
s(I61
I379
tp3077
I2
s(I379
I733
tp3078
I1
s(I286
I379
tp3079
I5
s(I714
I744
tp3080
I1
s(I34
I957
tp3081
I2
s(I361
I1179
tp3082
I1
s(I255
I712
tp3083
I1
s(I453
I805
tp3084
I1
s(I1170
I1292
tp3085
I7
s(I41
I744
tp3086
I1
s(I632
I837
tp3087
I1
s(I744
I799
tp3088
I2
s(I1137
I1280
tp3089
I1
s(I379
I586
tp3090
I5
s(I379
I934
tp3091
I2
s(I736
I927
tp3092
I7
s(I91
I744
tp3093
I1
s(I589
I1268
tp3094
I1
s(I1170
I1327
tp3095
I1
s(I379
I1012
tp3096
I2
s(I379
I571
tp3097
I2
s(I736
I782
tp3098
I1
s(I278
I1157
tp3099
I1
s(I23
I436
tp3100
I1
s(I160
I280
tp3101
I3
s(I155
I228
tp3102
I1
s(I490
I1307
tp3103
I1
s(I379
I424
tp3104
I1
s(I927
I1214
tp3105
I2
s(I124
I1164
tp3106
I1
s(I1031
I1032
tp3107
I1
s(I491
I915
tp3108
I2
s(I203
I582
tp3109
I1
s(I221
I379
tp3110
I1
s(I26
I379
tp3111
I6
s(I379
I722
tp3112
I1
s(I472
I1072
tp3113
I1
s(I280
I915
tp3114
I1
s(I379
I1062
tp3115
I1
s(I379
I405
tp3116
I1
s(I379
I1185
tp3117
I1
s(I133
I379
tp3118
I1
s(I282
I935
tp3119
I1
s(I1016
I1259
tp3120
I1
s(I379
I1274
tp3121
I2
s(I195
I379
tp3122
I1
s(I52
I272
tp3123
I1
s(I489
I602
tp3124
I1
s(I167
I735
tp3125
I1
s(I867
I1270
tp3126
I1
s(I42
I490
tp3127
I2
s(I238
I1303
tp3128
I1
s(I634
I931
tp3129
I1
s(I379
I909
tp3130
I1
s(I379
I1233
tp3131
I1
s(I736
I1129
tp3132
I25
s(I744
I1220
tp3133
I1
s(I22
I598
tp3134
I1
s(I210
I490
tp3135
I1
s(I238
I619
tp3136
I1
s(I379
I890
tp3137
I2
s(I369
I1099
tp3138
I1
s(I458
I816
tp3139
I1
s(I846
I1037
tp3140
I1
s(I361
I573
tp3141
I1
s(I853
I938
tp3142
I1
s(I585
I1170
tp3143
I2
s(I379
I1087
tp3144
I3
s(I554
I1245
tp3145
I1
s(I268
I1262
tp3146
I1
s(I392
I728
tp3147
I1
s(I559
I632
tp3148
I1
s(I84
I931
tp3149
I1
s(I345
I856
tp3150
I1
s(I270
I338
tp3151
I1
s(I589
I1254
tp3152
I1
s(I319
I324
tp3153
I1
s(I280
I632
tp3154
I4
s(I319
I1290
tp3155
I1
s(I449
I906
tp3156
I2
s(I446
I580
tp3157
I1
s(I360
I379
tp3158
I1
s(I379
I457
tp3159
I1
s(I51
I1214
tp3160
I1
s(I364
I744
tp3161
I1
s(I682
I712
tp3162
I1
s(I276
I598
tp3163
I1
s(I157
I900
tp3164
I4
s(I172
I1218
tp3165
I1
s(I178
I379
tp3166
I2
s(I232
I736
tp3167
I3
s(I379
I422
tp3168
I1
s(I535
I928
tp3169
I1
s(I634
I723
tp3170
I1
s(I319
I415
tp3171
I1
s(I1221
I1224
tp3172
I1
s(I195
I472
tp3173
I1
s(I490
I933
tp3174
I1
s(I140
I444
tp3175
I1
s(I379
I1076
tp3176
I7
s(I239
I1250
tp3177
I1
s(I97
I379
tp3178
I1
s(I837
I1307
tp3179
I1
s(I501
I744
tp3180
I1
s(I744
I884
tp3181
I1
s(I490
I863
tp3182
I1
s(I379
I593
tp3183
I1
s(I12
I785
tp3184
I1
s(I200
I966
tp3185
I1
s(I379
I403
tp3186
I1
s(I160
I250
tp3187
I1
s(I379
I923
tp3188
I1
s(I379
I462
tp3189
I1
s(I341
I379
tp3190
I1
s(I1268
I1291
tp3191
I1
s(I116
I490
tp3192
I1
s(I100
I185
tp3193
I3
s(I146
I744
tp3194
I1
s(I379
I776
tp3195
I4
s(I379
I447
tp3196
I1
s(I1129
I1133
tp3197
I1
s(I50
I354
tp3198
I1
s(I211
I1126
tp3199
I1
s(I319
I388
tp3200
I1
s(I379
I761
tp3201
I5
s(I36
I215
tp3202
I1
s(I109
I379
tp3203
I2
s(I678
I931
tp3204
I1
s(I71
I1029
tp3205
I1
s(I90
I1209
tp3206
I1
s(I7
I379
tp3207
I2
s(I744
I891
tp3208
I11
s(I388
I736
tp3209
I5
s(I18
I461
tp3210
I1
s(I92
I324
tp3211
I1
s(I93
I744
tp3212
I1
s(I900
I1170
tp3213
I4
s(I150
I922
tp3214
I1
s(I82
I379
tp3215
I2
s(I210
I1242
tp3216
I2
s(I379
I1143
tp3217
I3
s(I472
I1262
tp3218
I5
s(I896
I1067
tp3219
I1
s(I379
I1252
tp3220
I1
s(I68
I379
tp3221
I1
s(I22
I490
tp3222
I1
s(I831
I832
tp3223
I1
s(I626
I757
tp3224
I1
s(I744
I1262
tp3225
I6
s(I379
I769
tp3226
I1
s(I379
I436
tp3227
I10
s(I52
I470
tp3228
I1
s(I927
I1170
tp3229
I19
s(I379
I1109
tp3230
I1
s(I71
I891
tp3231
I13
s(I239
I501
tp3232
I1
s(I336
I572
tp3233
I1
s(I100
I823
tp3234
I2
s(I379
I766
tp3235
I1
s(I91
I233
tp3236
I1
s(I490
I493
tp3237
I1
s(I102
I280
tp3238
I1
s(I611
I952
tp3239
I1
s(I579
I1177
tp3240
I1
s(I702
I1210
tp3241
I1
s(I122
I1108
tp3242
I1
s(I379
I623
tp3243
I14
s(I379
I1292
tp3244
I15
s(I736
I1280
tp3245
I1
s(I59
I104
tp3246
I1
s(I1021
I1031
tp3247
I1
s(I117
I325
tp3248
I1
s(I498
I713
tp3249
I1
s(I744
I1350
tp3250
I1
s(I379
I937
tp3251
I1
s(I379
I476
tp3252
I1
s(I472
I927
tp3253
I4
s(I379
I1277
tp3254
I1
s(I403
I934
tp3255
I1
s(I280
I1262
tp3256
I1
s(I282
I736
tp3257
I1
s(I431
I906
tp3258
I1
s(I431
I449
tp3259
I1
s(I379
I1130
tp3260
I5
s(I364
I868
tp3261
I1
s(I187
I744
tp3262
I2
s(I319
I546
tp3263
I1
s(I744
I986
tp3264
I1
stRp3265
.