ccollections
Counter
p1
((dp2
(S'love'
p3
S'photography'
p4
tp5
I1
s(S'justlivingtheirregularlife'
p6
S'nowplaying'
p7
tp8
I2
s(S'ferguson'
p9
S'military'
p10
tp11
I1
s(S'rt'
p12
S'signalboost'
p13
tp14
I3
s(S'ferguson'
S'warzone'
tp15
I2
s(S'antonsolamente'
p16
S'dontshoot'
p17
tp18
I2
s(S'jailkillercops'
p19
S'usrevolution'
p20
tp21
I1
s(S'assaultonofficer'
p22
S'period'
p23
tp24
I1
s(S'ferguson'
S'greta'
tp25
I1
s(S'edshow'
S'ferguson'
tp26
I4
s(S'darrenwilson'
p27
S'mikebrown'
p28
tp29
I74
s(S'iraq'
p30
S'nsa'
p31
tp32
I1
s(S'aggressor'
p33
S'chrismatthews'
p34
tp35
I1
s(S'dc2mo'
p36
S'ferguson'
tp37
I1
s(S'policereform'
p38
S'stopracialprofiling'
p39
tp40
I1
s(S'americans'
p41
S'mikebrown'
p42
tp43
I1
s(S'freepalestine'
p44
S'twitter'
p45
tp46
I2
s(S'obvious'
S'stoptheviolence'
tp47
I1
s(S'revolution'
p48
S'ripmikebrown'
p49
tp50
I1
s(S'michaelbrown'
p51
S'stopplantingideas'
p52
tp53
I1
s(S'ferguson'
p54
S'occupyoakland'
p55
tp56
I2
s(S'ferguson'
p57
S'nytomo'
p58
tp59
I2
s(g27
S'tytlive'
p60
tp61
I1
s(S'ferguson'
S'negroes'
p62
tp63
I1
s(S'ferguson'
S'obamaparrotslies'
tp64
I2
s(S'godhelpusall'
p65
S'lifeless'
p66
tp67
I1
s(S'gaza'
p68
S'usa'
p69
tp70
I1
s(S'itsbiggerthanyo'
p71
S'justice4michaelbrown'
p72
tp73
I2
s(S'nochange'
p74
S'resist'
p75
tp76
I1
s(S'stl'
p77
S'unity'
p78
tp79
I1
s(S'fergusonshotting'
p80
S'tcot'
tp81
I1
s(S'bush'
p82
S'rex84'
p83
tp84
I2
s(S'police'
p85
S'prayforferguson'
p86
tp87
I1
s(S'ferguson'
p88
S'protestispatriotic'
p89
tp90
I1
s(S'ferguson'
p91
S'solidarity'
p92
tp93
I8
s(S'1stamendmentviolated'
S'ferguson'
tp94
I1
s(S'die'
p95
S'robbing'
p96
tp97
I1
s(S'androidgames'
p98
S'ipadg'
p99
tp100
I1
s(S'ferguson'
S'regulatepolice'
tp101
I1
s(S'ferguson'
p102
S'news'
p103
tp104
I5
s(S'aca'
p105
g19
tp106
I1
s(S'edshow'
p107
S'inners'
p108
tp109
I1
s(S'online'
S'twitter'
tp110
I1
s(S'byanymeansnecessary'
p111
S'themoreyouknow'
p112
tp113
I1
s(S'ferguson'
S'justiceformichael'
tp114
I1
s(S'attacking'
p115
S'ferguson'
p116
tp117
I1
s(S'c'
S'occupywallstreet'
p118
tp119
I1
s(S'ferguson'
p120
S'policechiefthomasjackson'
p121
tp122
I1
s(S'brynmawr'
p123
S'mom'
tp124
I1
s(S'fergusonpolice'
p125
S'peace'
p126
tp127
I1
s(S'ferguson'
S'ohok'
tp128
I1
s(S'ferguson'
S'howarduniversity'
p129
tp130
I2
s(S'fact'
S'ferguson'
tp131
I2
s(S'dallas'
p132
S'ftp'
p133
tp134
I1
s(S'mikebrown'
S'trainisneverlate'
p135
tp136
I1
s(S'fergusonshooting'
p137
S'mikebrown'
p138
tp139
I19
s(S'ferguson'
S'love'
p140
tp141
I1
s(S'israel'
p142
S'warcrimes'
p143
tp144
I1
s(S'ferguson'
p145
S'tcot'
p146
tp147
I122
s(S'myfergusonpd'
p148
g20
tp149
I1
s(S'ctl'
p150
S'ferguson'
tp151
I1
s(S'iraq'
p152
S'israel'
p153
tp154
I2
s(S'getty'
p155
S'gettyimages'
p156
tp157
I1
s(S'ferguson'
p158
S'mediablackout'
p159
tp160
I9
s(S'ferguson'
p161
g83
tp162
I2
s(S'fascism'
p163
S'ferguson'
p164
tp165
I1
s(S'handsupdontshoot'
p166
S'uspoli'
p167
tp168
I1
s(S'ferguson'
S'smh'
tp169
I3
s(S'occupy'
p170
S'video'
p171
tp172
I1
s(S'ap'
p173
S'kids'
p174
tp175
I1
s(g118
g171
tp176
I1
s(S'disobey'
p177
g74
tp178
I1
s(S'kindle'
p179
S'nook'
p180
tp181
I1
s(S'happening'
p182
S'stop'
p183
tp184
I1
s(S'justiceforall'
p185
S'peace'
p186
tp187
I2
s(S'darrenwilson'
S'fergusonpolice'
tp188
I2
s(S'blackandwhitecookie'
p189
S'racism'
p190
tp191
I1
s(S'ferguson'
S'muckreads'
tp192
I1
s(S'ezellford'
p193
S'rights'
p194
tp195
I1
s(S'ncat'
p196
S'ncat18'
p197
tp198
I1
s(S'elpjisdope'
S'ferguson'
tp199
I1
s(S'furgusonshooting'
p200
S'wiunion'
p201
tp202
I1
s(S'handsup'
p203
S'order'
p204
tp205
I1
s(S'justicformikebrown'
p206
g13
tp207
I3
s(S'ferguson'
S'wbai'
tp208
I1
s(S'ferguson'
S'mikebrown'
tp209
I1366
s(S'mikebrown'
g62
tp210
I1
s(S'blackyouthmatter'
p211
S'justiceformikebrown'
tp212
I1
s(S'aarp'
p213
S'sociology'
p214
tp215
I1
s(S'jobsila'
p216
S'news'
p217
tp218
I5
s(S'policestate'
p219
S'political'
p220
tp221
I1
s(S'ericgarner'
p222
S'trayvonmartin'
p223
tp224
I3
s(S'mikebrown'
S'obvious'
p225
tp226
I1
s(S'ferguson'
p227
g143
tp228
I1
s(S'ripmikebrown'
p229
S'ripmikemike'
p230
tp231
I1
s(S'inners'
p232
S'opaque'
p233
tp234
I1
s(S'ferguson'
p235
S'wilson'
p236
tp237
I1
s(S'ferguson'
S'montreal'
tp238
I3
s(S'ferguson'
S'godforgiveswedont'
tp239
I1
s(S'dashcams'
p240
S'ferguson'
p241
tp242
I1
s(S'dontshoot'
p243
S'itsbiggerthanyou'
p244
tp245
I1
s(S'ferguson'
S'travonmartin'
tp246
I1
s(S'allpolice'
p247
S'bodycams'
p248
tp249
I1
s(g137
S'waronwhites'
p250
tp251
I7
s(S'militarizedpolice'
p252
S'police'
p253
tp254
I1
s(S'michaelbrown'
p255
S'stepdown'
p256
tp257
I1
s(S'activistworldnewsnow'
p258
S'antisec'
p259
tp260
I1
s(S'pr'
p261
S'smm'
p262
tp263
I1
s(S'breaking'
S'darrenwilson'
tp264
I3
s(S'bedstuynmos'
p265
S'brooklyn'
p266
tp267
I2
s(S'ferguson'
S'stopandfrish'
p268
tp269
I1
s(S'michaelbrown'
S'mo'
p270
tp271
I5
s(S'ferguson'
p272
S'icebucketchallenge'
p273
tp274
I2
s(S'ferguson'
S'respect'
tp275
I5
s(S'blackpower'
p276
S'justice'
p277
tp278
I1
s(S'ferguson'
S'radiowisdom'
tp279
I1
s(S'sgp'
p280
S'tgdn'
p281
tp282
I1
s(g200
S'lapd'
p283
tp284
I1
s(S'chiefofpigs'
p285
S'fergusonshooting'
tp286
I1
s(S'ferguson'
p287
S'national'
p288
tp289
I1
s(S'holder'
p290
S'iraq'
p291
tp292
I1
s(S'amerikkka'
p293
S'ferguson'
tp294
I2
s(S'huffpost'
S'p2'
tp295
I1
s(S'7news'
p296
S'breaking'
tp297
I1
s(S'executed'
p298
S'michaelbrown'
p299
tp300
I1
s(S'cop'
p301
S'handsupdontshoot'
p302
tp303
I1
s(S'innocent'
p304
S'teenager'
p305
tp306
I1
s(S'michaelbrown'
p307
S'pjnet'
p308
tp309
I7
s(S'ferguson'
S'sundown'
tp310
I1
s(g298
g304
tp311
I1
s(S'ows'
p312
g171
tp313
I1
s(S'ericgarner'
p314
g194
tp315
I1
s(S'good'
p316
S'judgement'
p317
tp318
I1
s(S'dickandballs'
p319
S'ferguson'
p320
tp321
I1
s(g68
S'israel'
p322
tp323
I3
s(S'dontshoot'
S'fergusontodc'
p324
tp325
I1
s(S'robinwilliams'
S'tgif'
p326
tp327
I1
s(S'ferguson'
S'thewaterisnotclean'
tp328
I1
s(S'darrenwilson'
p329
S'opferguson'
p330
tp331
I1
s(S'abc'
S'news'
tp332
I1
s(S'ndaa'
p333
S'usa'
tp334
I2
s(S'ga'
p335
S'gun'
p336
tp337
I1
s(g287
S'michaelmoore'
p338
tp339
I1
s(S'msm'
p340
S'us'
tp341
I1
s(S'magicbulletbyke'
p342
S'mikebrown'
tp343
I1
s(g204
S'policebrutality'
p344
tp345
I1
s(S'ferguson'
p346
S'internacional'
p347
tp348
I2
s(S'snowden'
p349
S'violated'
p350
tp351
I4
s(g95
S'looting'
p352
tp353
I1
s(S'awkwa'
p354
g272
tp355
I1
s(S'lastweektonight'
p356
S'police'
tp357
I1
s(g17
S'solidarity'
p358
tp359
I4
s(S'business'
p360
S'socialshakeup'
p361
tp362
I1
s(S'ferguson'
S'showthedamnvideo'
tp363
I1
s(S'bucketchallenge'
p364
S'gop'
p365
tp366
I1
s(S'bringbackourgirls'
p367
S'gaza'
tp368
I1
s(S'fergusonriot'
p369
S'fergusonshooting'
p370
tp371
I5
s(S'grassroots'
p372
S'usa'
p373
tp374
I1
s(S'fergusonshooting'
S'nrx'
p375
tp376
I1
s(S'endangeredspecies'
p377
S'iraq'
p378
tp379
I1
s(S'cop'
p380
S'michaelbrown'
p381
tp382
I1
s(S'policebrutality'
p383
S'policestate'
p384
tp385
I3
s(S'michaelbrown'
p386
S'nmos14'
p387
tp388
I3
s(S'justiceformikebrown'
S'michaelbrown'
tp389
I1
s(S'abusive'
p390
g298
tp391
I1
s(g88
S'militarizedpolice'
p392
tp393
I5
s(S'ferguson'
S'jesus'
tp394
I2
s(S'ipad'
p395
S'iphone'
p396
tp397
I1
s(S'indy'
p398
S'nmos14'
tp399
I1
s(S'armedrobbery'
p400
S'darrenwilson'
tp401
I1
s(g132
S'ericgarner'
p402
tp403
I1
s(S'dontshoot'
p404
S'sju'
p405
tp406
I2
s(g51
S'victim'
p407
tp408
I1
s(S'gazans'
p409
S'us'
p410
tp411
I2
s(S'mikebrown'
p412
S'sju18'
p413
tp414
I2
s(S'handsupdontshoot'
S'united'
tp415
I1
s(S'handsup'
p416
S'mikeferguson'
p417
tp418
I1
s(S'indianapolis'
p419
S'mikebrown'
tp420
I1
s(S'corrupt'
p421
S'lying'
p422
tp423
I1
s(S'elsipogtog'
S'ferguson'
tp424
I2
s(S'cuba'
p425
S'usa'
tp426
I3
s(S'foxforthesheeple'
S'foxracistmedia'
tp427
I1
s(S'diaspora'
p428
S'racism'
p429
tp430
I1
s(S'columbus'
p431
S'michaelbrown'
tp432
I1
s(S'angelacoreyoutnow'
p433
S'jax'
p434
tp435
I1
s(S'ferguson'
p436
S'military_surplus'
p437
tp438
I1
s(S'marshalllaw'
p439
S'wakeup'
tp440
I2
s(S'gaza'
p441
S'palestina'
p442
tp443
I1
s(g177
g75
tp444
I1
s(S'ferguson'
p445
S'peoplepower'
p446
tp447
I1
s(S'ferguson'
p448
S'racebaiters'
p449
tp450
I5
s(S'opferguson'
p451
g75
tp452
I1
s(S'autopsy'
p453
S'mikebrown'
p454
tp455
I2
s(S'justiceformikebrown'
S'uniteblue'
p456
tp457
I1
s(S'ferguson'
p458
S'iftheygunnedmedown'
p459
tp460
I37
s(S'ferguson'
p461
S'greenpregnancy'
p462
tp463
I1
s(S'ferguson'
p464
S'proud'
p465
tp466
I1
s(g174
S'police'
p467
tp468
I1
s(S'black'
p469
g336
tp470
I1
s(S'ferguson'
S'thepanel'
tp471
I1
s(S'ericgarner'
p472
g451
tp473
I1
s(S'ferguson'
S'wearemikebrown'
p474
tp475
I1
s(g364
S'ferguson'
p476
tp477
I1
s(S'beingblack'
p478
S'killingus'
p479
tp480
I1
s(S'breakingnews'
p481
S'usa'
p482
tp483
I1
s(S'police'
p484
S'reporters'
p485
tp486
I1
s(S'fergusionfiasco'
p487
S'ferguson'
tp488
I1
s(S'coverup'
S'crookedpigs'
p489
tp490
I1
s(S'agreement'
p491
S'ferguson'
p492
tp493
I4
s(S'libcrib'
p494
S'p2'
tp495
I3
s(S'canada'
p496
g166
tp497
I1
s(S'developing'
p498
S'ferguson'
tp499
I1
s(S'mikebrown'
S'socialmedia'
p500
tp501
I1
s(S'atl'
p502
S'nojusticenopeace'
p503
tp504
I1
s(g319
S'wshhvine'
p505
tp506
I1
s(S'columbus'
p507
S'handsupdontshoot'
tp508
I2
s(S'laparaladamonosotro'
S'real_linoe'
tp509
I1
s(S'handsupdontshoot'
p510
S'rallyforferguson'
p511
tp512
I2
s(g227
S'zionist'
p513
tp514
I1
s(S'bebolapara'
p515
S'solidarity'
p516
tp517
I1
s(g120
S'unarmedblackteen'
p518
tp519
I1
s(S'ferguson'
p520
S'nyc'
p521
tp522
I11
s(S'atl'
S'michaelbrown'
tp523
I2
s(S'michaelbrown'
S'obama'
tp524
I2
s(S'hot'
p525
S'news'
p526
tp527
I1
s(S'ferguson'
S'mcso'
tp528
I1
s(S'police'
S'policestate'
tp529
I4
s(S'nyc'
p530
S'tcot'
p531
tp532
I4
s(g194
g78
tp533
I1
s(g173
S'release'
p534
tp535
I1
s(S'ferguson'
p536
S'fl3'
p537
tp538
I1
s(S'ferguson'
p539
g352
tp540
I1
s(g372
g170
tp541
I1
s(S'handsupdontshoot'
S'nixon'
p542
tp543
I1
s(S'bisonpride'
p544
S'decaturga'
p545
tp546
I1
s(S'irs'
p547
S'tcot'
tp548
I2
s(S'army'
p549
g95
tp550
I1
s(S'growup'
p551
S'violence'
p552
tp553
I1
s(g58
S'streetjustice'
p554
tp555
I2
s(S'news'
S'nyc'
p556
tp557
I1
s(S'dontshoot'
S'onenation'
p558
tp559
I1
s(g461
S'sustainability'
p560
tp561
I1
s(S'ferguson'
p562
g190
tp563
I9
s(g539
g96
tp564
I1
s(S'2a'
p565
S'news'
p566
tp567
I2
s(S'dailydefinition'
p568
S'tinypoems'
p569
tp570
I1
s(S'luiis_3x'
S'luispokel'
tp571
I1
s(S'art'
p572
S'dance'
p573
tp574
I1
s(S'mikebrown'
S'p2'
p575
tp576
I3
s(S'ferguson'
S'ftp'
p577
tp578
I10
s(g293
S'freedom'
tp579
I2
s(S'darrenwilson'
p580
S'freepress'
p581
tp582
I2
s(S'bs'
p583
S'darrenwilson'
tp584
I1
s(S'adoption'
p585
S'inequality'
p586
tp587
I1
s(S'dunkerpunks'
p588
S'iftheygunnedmedown'
p589
tp590
I1
s(S'gop'
p591
g307
tp592
I4
s(g329
S'missouri'
p593
tp594
I1
s(g17
S'lafalacia_'
p595
tp596
I2
s(S'christians'
p597
S'iraq'
p598
tp599
I1
s(S'handsupdontshoot'
p600
S'supportfergusonbusinesses'
p601
tp602
I1
s(S'mikebrown'
p603
S'mom'
p604
tp605
I16
s(S'endpolicebrutality'
p606
S'handsupdontshoot'
p607
tp608
I3
s(S'cnn'
p609
S'mikebrown'
p610
tp611
I6
s(S'ferguson'
p612
S'pot'
p613
tp614
I1
s(S'pjnet'
p615
S'taxpayers'
p616
tp617
I1
s(g565
S'tcot'
p618
tp619
I2
s(S'fergusonshooting'
p620
g206
tp621
I3
s(S'coach'
p622
S'protesters'
p623
tp624
I1
s(g381
S'shot'
p625
tp626
I1
s(g116
S'heroes'
p627
tp628
I1
s(S'handsupdontshoot'
S'michealbrown'
p629
tp630
I1
s(S'gaza'
p631
S'powertothepeople'
p632
tp633
I4
s(g298
S'policestate'
p634
tp635
I1
s(S'genocide'
p636
g586
tp637
I1
s(S'handsupdontshoot'
p638
S'peace'
p639
tp640
I1
s(g607
S'solidarity'
p641
tp642
I3
s(S'ferguson'
S'mikewilson'
tp643
I2
s(S'ferguson'
S'myawhite'
p644
tp645
I5
s(S'mikebrown'
p646
g89
tp647
I1
s(g255
g121
tp648
I1
s(g248
g241
tp649
I1
s(S'blacktwitter'
p650
S'michaelbrown'
p651
tp652
I1
s(g85
S'racism'
p653
tp654
I1
s(S'beyonce'
p655
S'jayz'
p656
tp657
I1
s(S'gretawire'
p658
g308
tp659
I2
s(S'bees'
p660
S'syria'
p661
tp662
I1
s(S'alsicebucketchallenge'
p663
S'uniteblue'
p664
tp665
I1
s(g398
S'justiceformikebrown'
tp666
I1
s(g377
S'gaza'
p667
tp668
I1
s(S'darrenwilson'
S'thename'
p669
tp670
I1
s(S'ferguson'
p671
S'robinwilliams'
p672
tp673
I4
s(S'hiphop'
p674
S'tfb'
p675
tp676
I1
s(S'news'
S'usa'
tp677
I3
s(S'ferguson'
p678
S'jamesalexandergordon'
p679
tp680
I1
s(g177
S'nohope'
p681
tp682
I1
s(S'handsupla'
p683
g186
tp684
I2
s(S'blackman'
S'ferguson'
tp685
I1
s(S'ferguson'
g270
tp686
I5
s(S'black'
p687
S'justice'
p688
tp689
I1
s(S'bennett18'
p690
S'mikebrown'
p691
tp692
I1
s(S'bitcoin'
p693
S'money'
p694
tp695
I1
s(S'bundy'
p696
S'fn'
p697
tp698
I1
s(S'aggiepride'
p699
S'ripmikebrown'
p700
tp701
I2
s(S'alllivesmatter'
p702
S'handsupdontshoot'
p703
tp704
I1
s(S'ferguson'
S'msnbc'
p705
tp706
I4
s(S'fergusonshooting'
S'lavrov'
p707
tp708
I1
s(S'ferguson'
p709
S'sosferguson'
p710
tp711
I3
s(S'ac360'
p712
S'ferguson'
tp713
I10
s(S'ferguson'
S'mklissoproud'
tp714
I1
s(S'ftp'
S'shame'
tp715
I4
s(S'mikebrown'
p716
g92
tp717
I5
s(S'comedy'
p718
S'prayforferguson'
p719
tp720
I1
s(S'ebola'
p721
g153
tp722
I1
s(g91
S'universityoftexas'
p723
tp724
I1
s(g392
g89
tp725
I1
s(S'wap'
p726
S'wearepromotion'
p727
tp728
I1
s(S'djs'
p729
S'justiceformikebrown'
p730
tp731
I1
s(S'ferguson'
p732
S'fergusontogaza'
p733
tp734
I1
s(S'education'
p735
g636
tp736
I1
s(g82
S'reagan'
p737
tp738
I2
s(S'mikebrown'
S'opferguson'
p739
tp740
I11
s(S'ferguson'
S'right2rebel'
tp741
I1
s(S'mikebrown'
S'missouri'
tp742
I3
s(g68
S'uk'
p743
tp744
I1
s(S'coverup'
S'ferguson'
tp745
I14
s(g314
S'justiceformikebrown'
p746
tp747
I2
s(g360
g525
tp748
I1
s(S'michaelbrown'
S'police'
tp749
I2
s(S'knowyourpolicedepartment'
p750
S'mikebrown'
tp751
I1
s(S'bundyranch'
p752
S'p2'
tp753
I1
s(g170
g373
tp754
I1
s(S'ferguson'
S'ing'
tp755
I1
s(S'ferguson'
S'ff'
tp756
I2
s(g367
S'solidarity'
tp757
I1
s(g118
g373
tp758
I1
s(S'ferguson'
S'jewsforpalestine'
p759
tp760
I1
s(S'baden'
p761
S'video'
p762
tp763
I2
s(g320
S'wshhfamous'
p764
tp765
I1
s(g597
S'isis'
p766
tp767
I1
s(S'edchat'
p768
S'plaea'
p769
tp770
I1
s(S'gaza'
p771
g521
tp772
I3
s(S'atl'
p773
g726
tp774
I1
s(S'blacklivesmatter'
S'ferguson'
tp775
I21
s(S'atl'
p776
g243
tp777
I2
s(S'dailyracism'
p778
S'fail'
p779
tp780
I1
s(S'arrestdarrenwilson'
p781
S'ferguson'
p782
tp783
I4
s(S'peace'
S'ripmikebrown'
p784
tp785
I1
s(S'obama'
p786
S'shakeitoff'
p787
tp788
I1
s(g347
S'video'
p789
tp790
I1
s(S'palestine'
p791
S'ukraine'
p792
tp793
I1
s(S'scnews'
S'sctweets'
p794
tp795
I3
s(g335
S'georgia'
p796
tp797
I1
s(S'ferguson'
p798
g422
tp799
I1
s(S'cuba'
S'us'
tp800
I1
s(S'dontshoot'
p801
S'nojustuce'
p802
tp803
I1
s(g352
S'scumbags'
p804
tp805
I1
s(g413
S'sjuorientation'
p806
tp807
I2
s(g322
g743
tp808
I1
s(g636
S'whitesupremacy'
p809
tp810
I1
s(S'ferguson'
S'prt'
tp811
I1
s(S'ferguson'
S'homeforthebrave'
tp812
I1
s(S'fixitjesus'
p813
S'mikebrown'
p814
tp815
I1
s(g396
S'news'
p816
tp817
I1
s(S'iluvrap'
p818
S'missouri'
p819
tp820
I1
s(S'justiceformikebrown'
p821
S'peace'
p822
tp823
I1
s(S'army'
p824
g437
tp825
I1
s(S'gameinsight'
p826
S'ipad'
p827
tp828
I1
s(S'generationofracism'
p829
S'smalltownvalues'
p830
tp831
I1
s(S'ferguson'
S'outfront'
tp832
I6
s(S'ferguson'
S'omg'
p833
tp834
I1
s(S'ferguson'
S'mbgc'
tp835
I1
s(S'ferguson'
p836
g409
tp837
I2
s(S'mikebrown'
p838
S'tonight'
p839
tp840
I1
s(S'ferguson'
S'grant'
p841
tp842
I1
s(g174
g534
tp843
I1
s(S'anonymous'
p844
S'opferguson'
tp845
I13
s(S'cia'
p846
S'irs'
p847
tp848
I1
s(S'nwtfire'
p849
g661
tp850
I1
s(S'handsupdontshoot'
S'stl'
tp851
I1
s(S'obama'
p852
S'takebackamerica'
p853
tp854
I1
s(S'fergusonshooting'
p855
S'handsupdontshoot'
p856
tp857
I6
s(S'allblackmen'
p858
S'handsupdontshoot'
p859
tp860
I2
s(S'oip'
p861
S'tcot'
p862
tp863
I1
s(S'blacklivesmatter'
p864
S'decaturga'
p865
tp866
I1
s(S'ferguson'
S'toxicology'
tp867
I3
s(S'android'
p868
g396
tp869
I1
s(g155
S'news'
p870
tp871
I1
s(S'equality'
p872
S'justice'
p873
tp874
I1
s(S'gazaunderattack'
p875
S'israelunderfire'
p876
tp877
I1
s(g613
g623
tp878
I1
s(S'fergusontapes'
p879
S'mikebrown'
tp880
I1
s(S'egypt'
S'ferguson'
tp881
I1
s(S'activistworldnewsnow'
S'ferguson'
tp882
I6
s(g316
S'murderfree'
p883
tp884
I1
s(S'benghazi'
p885
S'illegals'
p886
tp887
I1
s(g507
S'nmos14'
tp888
I3
s(S'ezellford'
p889
S'laprotest'
p890
tp891
I1
s(S'ferguson'
p892
S'newzealand'
p893
tp894
I2
s(S'handsup'
p895
S'jacksonville'
p896
tp897
I1
s(S'ferguson'
S'realtalk'
p898
tp899
I1
s(S'gunsense'
p900
S'leadership'
p901
tp902
I1
s(g283
S'nycpd'
p903
tp904
I1
s(S'ferguson'
p905
S'stribpol'
p906
tp907
I1
s(S'capitalista'
p908
S'ferguson'
p909
tp910
I2
s(S'canada'
p911
g69
tp912
I1
s(S'ferguson'
S'howcool'
tp913
I1
s(S'disabilityjustice'
p914
S'ezellford'
p915
tp916
I1
s(S'crimebutnotime'
S'ferguson'
tp917
I1
s(g364
g787
tp918
I1
s(S'ferguson'
S'leadership'
tp919
I6
s(S'pr'
p920
S'truth'
p921
tp922
I1
s(g718
S'msnbc'
p923
tp924
I1
s(S'dontshoot'
S'formikebrown'
tp925
I1
s(S'ferguson'
p926
S'triggerhappy'
p927
tp928
I1
s(g663
g786
tp929
I1
s(S'cbbuk'
p930
S'mikebrown'
p931
tp932
I1
s(g600
g459
tp933
I3
s(S'prochoice'
p934
S'reprojustice'
p935
tp936
I1
s(g22
S'mikebrown'
p937
tp938
I1
s(S'bicycling'
p939
g462
tp940
I1
s(S'ferguson'
p941
S'wegotyousis'
p942
tp943
I3
s(S'atlanta'
p944
S'prayforferguson'
p945
tp946
I1
s(S'ferguson'
p947
S'racisminamerica'
p948
tp949
I1
s(S'breaking'
S'news'
tp950
I2
s(S'ferguson'
p951
g551
tp952
I1
s(S'ftp'
p953
S'justice4kyam'
p954
tp955
I1
s(S'android'
p956
g99
tp957
I1
s(S'nojusticenopeace'
p958
g60
tp959
I1
s(S'ferguson'
S'wtf'
tp960
I2
s(S'1stamendment'
S'ferguson'
tp961
I66
s(g377
g661
tp962
I1
s(S'apple'
p963
S'tech'
p964
tp965
I1
s(g301
S'important'
p966
tp967
I1
s(S'bigstepbackwards'
S'ferguson'
tp968
I1
s(S'fergusonshooting'
S'neilyoung'
p969
tp970
I1
s(g370
S'michaelbrownshooting'
p971
tp972
I1
s(S'ferguson'
S'trill'
tp973
I4
s(S'molonlabe'
p974
S'sisterpatriots'
p975
tp976
I1
s(S'idiocracy'
p977
g552
tp978
I1
s(S'sayfie'
p979
S'uniteblue'
p980
tp981
I1
s(S'justiceformikebrown'
p982
g74
tp983
I1
s(S'mikebrown'
S'ucla'
p984
tp985
I1
s(g469
S'ferguson'
p986
tp987
I1
s(S'dontshoot'
p988
S'letsalldobetter'
p989
tp990
I3
s(S'ciegodeavila'
p991
S'eeuu'
p992
tp993
I1
s(S'stl'
S'stlouiscountypolice'
p994
tp995
I1
s(g244
S'justiceformikebrown'
p996
tp997
I1
s(g365
g787
tp998
I1
s(S'blacklifeisvalued'
p999
S'payattention'
p1000
tp1001
I1
s(g813
S'mediablackout'
p1002
tp1003
I1
s(S'atlanta'
S'news'
tp1004
I1
s(g768
S'ferguson'
p1005
tp1006
I1
s(g308
S'tgdn'
p1007
tp1008
I4
s(g265
S'notonemore'
p1009
tp1010
I2
s(S'missouri'
p1011
S'nationalguard'
p1012
tp1013
I3
s(S'courage'
p1014
S'gls14'
p1015
tp1016
I1
s(S'ferguson'
S'stateofemergency'
tp1017
I2
s(S'ferguson'
S'tougaloo'
p1018
tp1019
I1
s(S'ferguson'
p1020
S'teaparty'
p1021
tp1022
I13
s(S'ferguson'
p1023
S'rp'
p1024
tp1025
I2
s(S'ferguson'
p1026
S'selfie'
p1027
tp1028
I1
s(S'ferguson'
S'journalists'
p1029
tp1030
I1
s(S'ferguson'
p1031
S'pinkpantherparty'
p1032
tp1033
I4
s(S'dartmouth'
p1034
S'ferguson'
tp1035
I1
s(S'iaedfuture'
p1036
S'michaelbrown'
p1037
tp1038
I1
s(S'howard'
p1039
S'mikebrown'
tp1040
I1
s(S'al'
p1041
S'uniteblue'
p1042
tp1043
I1
s(S'banksters'
p1044
S'policestate'
p1045
tp1046
I1
s(S'ferguson'
S'palestinians'
tp1047
I2
s(g615
S'tpnn'
p1048
tp1049
I1
s(S'krbe'
p1050
g7
tp1051
I2
s(S'ferguson'
p1052
S'guns'
p1053
tp1054
I1
s(S'dontshoot'
p1055
g1002
tp1056
I1
s(S'ferguson'
S'pjnet'
tp1057
I12
s(g1000
S'speakout'
p1058
tp1059
I1
s(S'obama'
p1060
S'teaparty'
p1061
tp1062
I1
s(S'mikebrown'
S'nocompromise'
p1063
tp1064
I1
s(S'us'
p1065
g373
tp1066
I2
s(S'tcot'
p1067
S'thefive'
p1068
tp1069
I1
s(g889
S'handsupdontshoot'
p1070
tp1071
I3
s(S'ferguson'
p1072
g233
tp1073
I1
s(S'ferguson'
S'gohome'
tp1074
I1
s(S'ferguson'
S'policeyourself'
tp1075
I1
s(S'ferguson'
p1076
g604
tp1077
I16
s(g150
S'tcot'
tp1078
I1
s(g690
S'protest'
p1079
tp1080
I1
s(S'ferguson'
S'infowars'
tp1081
I1
s(S'chips'
p1082
g905
tp1083
I1
s(S'fire'
p1084
S'policechief'
tp1085
I1
s(g402
g148
tp1086
I1
s(S'ferguson'
S'wth'
p1087
tp1088
I1
s(S'cau18'
p1089
S'spelman18'
p1090
tp1091
I2
s(S'ferguson'
S'xavier'
p1092
tp1093
I1
s(S'ferguson'
p1094
S'standwithferguson'
p1095
tp1096
I4
s(S'democat'
p1097
S'militarizationofpolice'
p1098
tp1099
I1
s(S'gaza'
S'justiceformikebrown'
tp1100
I5
s(S'evidence'
S'ferguson'
tp1101
I1
s(S'lol'
p1102
S'nationalguard'
tp1103
I1
s(S'ahhhshit'
p1104
S'ferguson'
p1105
tp1106
I1
s(g421
S'we'
p1107
tp1108
I1
s(S'fergusonriot'
p1109
S'policestate'
tp1110
I1
s(S'ferguson'
p1111
g220
tp1112
I1
s(g503
S'wesupport'
p1113
tp1114
I1
s(S'ferguson'
S'kmov'
p1115
tp1116
I1
s(g616
S'tcot'
p1117
tp1118
I1
s(S'ferguson'
p1119
S'officer'
p1120
tp1121
I1
s(S'cpcueropornoqrafico'
S'lozteletobiiz'
tp1122
I2
s(g905
g201
tp1123
I2
s(g687
g66
tp1124
I1
s(S'ferguson'
S'retweet'
p1125
tp1126
I2
s(S'ferguson'
S'newsonenow'
tp1127
I25
s(S'msm'
p1128
S'robinwilliams'
p1129
tp1130
I1
s(S'crazyworld'
p1131
S'ferguson'
p1132
tp1133
I1
s(S'ferguson'
S'tibetan'
p1134
tp1135
I1
s(S'brown'
p1136
S'nixon'
tp1137
I1
s(S'auc18'
p1138
S'morehouse18'
p1139
tp1140
I2
s(S'cnn'
p1141
S'tpp'
p1142
tp1143
I2
s(g103
g484
tp1144
I1
s(S'cfr'
p1145
g1045
tp1146
I1
s(g322
S'obama'
p1147
tp1148
I2
s(S'michealbrown'
p1149
S'trayvonmartin'
tp1150
I1
s(S'justiceformikebrown'
g994
tp1151
I1
s(g1023
S'powerfulimage'
p1152
tp1153
I1
s(g155
S'photography'
p1154
tp1155
I1
s(S'bennett'
p1156
S'handsupdontshoot'
p1157
tp1158
I1
s(S'aintnobodygottimeforthat'
p1159
S'alsicebucketchallenge'
p1160
tp1161
I1
s(S'atl'
S'cnncenter'
p1162
tp1163
I1
s(S'captainjohnson'
p1164
S'ferguson'
tp1165
I2
s(S'ferguson'
S'shoplifting'
p1166
tp1167
I1
s(g1041
S'ferguson'
tp1168
I1
s(g1041
S'darrenwilson'
p1169
tp1170
I1
s(S'dontgiveup'
p1171
S'p2'
p1172
tp1173
I1
s(g405
g413
tp1174
I2
s(S'anonymous'
S'nwo'
p1175
tp1176
I1
s(g956
g98
tp1177
I1
s(S'cdnpoli'
S'ferguson'
tp1178
I1
s(g999
g639
tp1179
I1
s(S'dc'
p1180
g873
tp1181
I1
s(S'ferguson'
S'nelly'
p1182
tp1183
I2
s(S'brokenwindows'
p1184
S'justiceformikebrown'
p1185
tp1186
I1
s(S'answers1stquestioninthread'
S'ferguson'
tp1187
I1
s(S'ferguson'
S'ksdk'
tp1188
I5
s(S'doj'
p1189
S'marshals'
p1190
tp1191
I1
s(S'chicago'
S'handsupdontshoot'
tp1192
I1
s(S'ferguson'
p1193
S'subterfuge'
p1194
tp1195
I1
s(g883
S'weekend'
p1196
tp1197
I1
s(S'notallwomen'
p1198
g672
tp1199
I1
s(S'congress'
p1200
S'ferguson'
p1201
tp1202
I1
s(S'ferguson'
g750
tp1203
I1
s(g658
g1007
tp1204
I2
s(g966
g28
tp1205
I1
s(g650
g166
tp1206
I1
s(S'ripmikebrown'
p1207
S'riposcargrant'
p1208
tp1209
I1
s(g266
S'nmos14'
p1210
tp1211
I2
s(S'ferguson'
S'garner'
tp1212
I1
s(S'acab'
p1213
S'killercop'
p1214
tp1215
I1
s(S'occupy'
p1216
S'occupywallstreet'
p1217
tp1218
I2
s(S'demilitarizethepolice'
p1219
S'justiceformikebrown'
p1220
tp1221
I1
s(S'boston'
p1222
S'copblock'
p1223
tp1224
I1
s(S'hip'
p1225
S'news'
p1226
tp1227
I1
s(g521
S'stoppolicebrutality'
p1228
tp1229
I1
s(S'ferguson'
S'hbcu'
p1230
tp1231
I1
s(g28
g60
tp1232
I1
s(g143
g513
tp1233
I1
s(S'fergusonriot'
p1234
g277
tp1235
I1
s(S'halifax'
S'nspoli'
tp1236
I1
s(g243
g996
tp1237
I4
s(S'brown'
p1238
S'michael'
p1239
tp1240
I1
s(S'handsup'
p1241
S'mikebrown'
p1242
tp1243
I11
s(S'jacksonville'
p1244
S'mikebrown'
tp1245
I1
s(g1052
g975
tp1246
I1
s(S'ferguson'
p1247
S'history'
p1248
tp1249
I2
s(S'everyonethoughtit'
S'ferguson'
tp1250
I1
s(S'ferguson'
S'stl'
tp1251
I77
s(S'arkansas'
p1252
S'clinton'
p1253
tp1254
I2
s(S'ferguson'
S'wrong'
p1255
tp1256
I1
s(S'college'
g984
tp1257
I1
s(g283
g201
tp1258
I1
s(g1171
S'ferguson'
p1259
tp1260
I1
s(g683
S'powertothepeople'
p1261
tp1262
I2
s(S'democracy'
p1263
S'freepress'
tp1264
I2
s(S'ripmikebrown'
p1265
S'thispicturesayssomuch'
p1266
tp1267
I1
s(S'ferguson'
S'yale'
p1268
tp1269
I2
s(S'ferguson'
S'whites'
tp1270
I1
s(S'fergusonriot'
p1271
S'handsupdontshoot'
p1272
tp1273
I1
s(S'gg_rmc'
p1274
S'ump'
p1275
tp1276
I1
s(g57
S'oppressed'
p1277
tp1278
I2
s(S'handsupdontshoot'
p1279
g148
tp1280
I1
s(S'michaelbrown'
p1281
S'tragedy'
p1282
tp1283
I1
s(S'obama'
p1284
S'venezuela'
p1285
tp1286
I1
s(S'ferguson'
S'knowyourrights'
p1287
tp1288
I1
s(g266
S'mikebrown'
p1289
tp1290
I2
s(S'freepalestine'
p1291
S'gazaunderattack'
tp1292
I2
s(S'news'
S'obama'
tp1293
I1
s(S'dontshoot'
S'wesupport'
p1294
tp1295
I1
s(S'ferguson'
S'memphis'
p1296
tp1297
I2
s(S'australia'
p1298
g892
tp1299
I3
s(g999
S'justice'
p1300
tp1301
I1
s(S'ows'
p1302
S'preppers'
p1303
tp1304
I1
s(g65
g688
tp1305
I1
s(S'darrenwilsonshotmichaelbrown'
p1306
S'resign'
p1307
tp1308
I1
s(S'dontshoot'
p1309
g1242
tp1310
I53
s(S'nmos14'
p1311
S'nmos14atl'
p1312
tp1313
I1
s(S'mb'
p1314
g236
tp1315
I1
s(S'swishersweets'
p1316
S'toxicology'
p1317
tp1318
I1
s(S'mikebrown'
S'rallyforferguson'
p1319
tp1320
I2
s(g591
g658
tp1321
I2
s(S'anonymous'
p1322
S'cnn'
p1323
tp1324
I2
s(S'mlk'
p1325
g449
tp1326
I5
s(S'nyc'
p1327
S'racialdivide'
p1328
tp1329
I1
s(S'bbc'
p1330
S'world'
p1331
tp1332
I1
s(S'freedom'
p1333
S'media'
p1334
tp1335
I1
s(S'ferguson'
S'fergusoncoverup'
p1336
tp1337
I1
s(S'crazycops'
p1338
S'police'
tp1339
I1
s(S'badidea'
S'ferguson'
tp1340
I1
s(S'ferguson'
S'wftv'
tp1341
I2
s(S'ferguson'
S'lawlesscretins'
tp1342
I1
s(g103
g485
tp1343
I1
s(S'potus'
S'tjms'
p1344
tp1345
I1
s(g589
S'learnmore'
p1346
tp1347
I1
s(S'ferguson'
S'wakeup'
p1348
tp1349
I5
s(S'ferguson'
p1350
S'jurno'
p1351
tp1352
I1
s(g395
g964
tp1353
I1
s(S'tellthetruth'
S'thebrointheblueshirt'
p1354
tp1355
I1
s(g696
g1275
tp1356
I1
s(S'hardball'
S'trayvon'
tp1357
I1
s(S'ferguson'
p1358
S'russia'
p1359
tp1360
I1
s(S'ferguson'
p1361
S'rushtojudgement'
p1362
tp1363
I1
s(g852
S'rednationrising'
p1364
tp1365
I1
s(S'breakingnews'
p1366
S'preppertalk'
p1367
tp1368
I1
s(S'robbery'
p1369
S'shameful'
p1370
tp1371
I1
s(S'michaelbrown'
p1372
g601
tp1373
I1
s(g638
S'prayersforferguson'
p1374
tp1375
I1
s(g1029
S'mikebrown'
tp1376
I1
s(g914
S'ferguson'
tp1377
I1
s(S'ferguson'
g1244
tp1378
I1
s(S'ebola'
p1379
g377
tp1380
I1
s(S'michaelbrown'
p1381
g762
tp1382
I2
s(S'atlanta'
S'endpolicebrutality'
p1383
tp1384
I1
s(S'college'
p1385
S'stl'
p1386
tp1387
I1
s(S'endmartiallaw'
p1388
g1220
tp1389
I1
s(S'ncat'
p1390
S'prayforferguson'
p1391
tp1392
I2
s(S'ferguson'
S'stlouis'
tp1393
I5
s(S'canada'
S'ferguson'
tp1394
I6
s(g132
g1279
tp1395
I1
s(S'gunsense'
p1396
g980
tp1397
I1
s(S'michaelbrown'
S'racism'
tp1398
I1
s(g177
S'ezellford'
p1399
tp1400
I1
s(g886
g42
tp1401
I1
s(g872
S'ferguson'
tp1402
I2
s(S'breaking'
p1403
S'wsbtv'
p1404
tp1405
I1
s(g1034
S'mikebrown'
tp1406
I1
s(S'handsupdontshoot'
S'ripmikebrown'
tp1407
I5
s(g492
S'signed'
p1408
tp1409
I4
s(S'ferguson'
S'policeofficer'
tp1410
I1
s(S'dontshoot'
S'thewholeworldiswatching'
tp1411
I2
s(S'embarrassment'
p1412
S'ferguson'
p1413
tp1414
I1
s(g1180
g872
tp1415
I1
s(S'inbbound'
p1416
g261
tp1417
I1
s(S'arresting'
p1418
g485
tp1419
I1
s(S'army'
p1420
g85
tp1421
I1
s(S'blacktwitter'
S'iftheygunnedmedown'
tp1422
I1
s(g369
S'riot'
p1423
tp1424
I1
s(g1399
g451
tp1425
I1
s(S'biggovernmentsucks'
p1426
S'ferguson'
p1427
tp1428
I1
s(S'soma'
p1429
S'sueleymanseba'
p1430
tp1431
I1
s(g663
g931
tp1432
I1
s(g1053
S'tcot'
p1433
tp1434
I1
s(S'ferguson'
g225
tp1435
I2
s(g1070
g890
tp1436
I1
s(g768
S'iaedchat'
p1437
tp1438
I1
s(S'cnn'
p1439
g705
tp1440
I1
s(S'cartoon'
p1441
g1111
tp1442
I1
s(S'bringbackourgirls'
p1443
S'kony2012'
p1444
tp1445
I1
s(g525
g361
tp1446
I1
s(S'ferguson'
S'sanjose'
tp1447
I1
s(g478
g464
tp1448
I1
s(S'cnnnewsroom'
p1449
S'ferguson'
tp1450
I1
s(S'drugwar'
p1451
g31
tp1452
I1
s(S'chi'
p1453
g482
tp1454
I1
s(S'ferguson'
g1063
tp1455
I1
s(g177
S'occupyferguson'
p1456
tp1457
I1
s(S'stoprush'
p1458
S'uniteblue'
tp1459
I2
s(S'ferguson'
S'opencarry'
tp1460
I6
s(S'dontshoot'
p1461
g1139
tp1462
I2
s(S'missouri'
p1463
S'newblackpanthers'
p1464
tp1465
I1
s(g472
g75
tp1466
I1
s(S'ferguson'
S'sonsandbrothers'
tp1467
I1
s(g510
S'nopeacenojustice'
p1468
tp1469
I1
s(S'inequality'
p1470
S'mikebrown'
p1471
tp1472
I1
s(g801
S'nopeace'
p1473
tp1474
I1
s(S'lastwords'
p1475
g223
tp1476
I3
s(S'attentionwhore'
p1477
S'ferguson'
p1478
tp1479
I1
s(S'ferguson'
p1480
S'usrevolution'
p1481
tp1482
I2
s(S'constitution'
p1483
g350
tp1484
I4
s(g265
g1210
tp1485
I2
s(S'stoptheviolence'
p1486
g862
tp1487
I1
s(g132
g19
tp1488
I1
s(S'chicago'
p1489
S'justiceformikebrown'
tp1490
I1
s(S'geld'
p1491
S'nederland'
p1492
tp1493
I1
s(S'ferguson'
S'freethegranny'
tp1494
I1
s(S'ferguson'
S'turtleisland'
p1495
tp1496
I1
s(g247
g241
tp1497
I1
s(g721
S'ukraine'
p1498
tp1499
I2
s(S'breaking'
S'michael'
p1500
tp1501
I1
s(g948
S'racist2014'
p1502
tp1503
I1
s(S'news19'
p1504
S'nmos14'
p1505
tp1506
I1
s(S'career'
p1507
S'jobs'
p1508
tp1509
I5
s(S'michaelbrown'
g542
tp1510
I1
s(S'justiceformichael'
S'naacp'
tp1511
I1
s(S'anonymous'
p1512
S'wearelegion'
p1513
tp1514
I1
s(S'justice'
S'truth'
tp1515
I1
s(S'handsupdontshoot'
p1516
S'stlouiswegotyo'
p1517
tp1518
I1
s(S'justiceformikebrown'
S'nojusticenopeace'
tp1519
I1
s(S'ferguson'
S'officerdarrenwilson'
p1520
tp1521
I1
s(g583
S'ferguson'
tp1522
I2
s(S'iraq'
p1523
S'peace'
p1524
tp1525
I1
s(g719
g764
tp1526
I1
s(S'justiceformikebrown'
S'yourlifematters'
p1527
tp1528
I2
s(S'michaelbrown'
p1529
S'missouri'
p1530
tp1531
I5
s(S'ferguson'
g340
tp1532
I2
s(g369
g971
tp1533
I1
s(S'facts'
p1534
S'smear'
p1535
tp1536
I1
s(S'circlingthewagons'
p1537
S'ferguson'
tp1538
I1
s(S'anonymous'
g994
tp1539
I1
s(S'fergusonas'
p1540
g1404
tp1541
I1
s(S'buildpeace'
p1542
g1346
tp1543
I1
s(S'bullshit'
S'ferguson'
tp1544
I4
s(g930
g664
tp1545
I1
s(g716
S'students'
p1546
tp1547
I1
s(S'news'
S'tu'
tp1548
I1
s(S'ferguson'
p1549
g75
tp1550
I1
s(S'ferguson'
S'prayforferguson'
tp1551
I6
s(S'backroompolitics'
p1552
S'ferguson'
tp1553
I1
s(g870
g1154
tp1554
I2
s(S'america'
p1555
g182
tp1556
I1
s(S'ebola'
p1557
g679
tp1558
I1
s(S'ferguson'
g342
tp1559
I1
s(S'abd'
p1560
S'gezi'
p1561
tp1562
I1
s(S'michaelbrown'
S'mumiaab'
p1563
tp1564
I1
s(g301
g60
tp1565
I1
s(S'justiceformikebrown'
p1566
S'mikebrown'
p1567
tp1568
I17
s(S'coward'
p1569
g1307
tp1570
I1
s(g1418
g102
tp1571
I1
s(g671
g1444
tp1572
I1
s(S'ferguson'
S'hardball'
tp1573
I10
s(S'cnn'
p1574
S'venezuela'
p1575
tp1576
I6
s(g412
g806
tp1577
I2
s(S'hardball'
S'mikebrown'
tp1578
I4
s(S'darrenwilson'
p1579
S'tcot'
p1580
tp1581
I4
s(S'ferguson'
p1582
g185
tp1583
I3
s(g1418
g103
tp1584
I1
s(g1131
S'sad'
p1585
tp1586
I1
s(g1418
S'threatening'
p1587
tp1588
I1
s(g868
g964
tp1589
I1
s(g593
g330
tp1590
I1
s(S'dontshoot'
p1591
g872
tp1592
I1
s(g1549
g74
tp1593
I1
s(S'estlouis'
p1594
S'ferguson'
p1595
tp1596
I1
s(g539
g804
tp1597
I1
s(S'justiceforall'
p1598
g112
tp1599
I1
s(g256
g518
tp1600
I1
s(S'ferguson'
p1601
S'losers'
p1602
tp1603
I1
s(S'ferguson'
S'violenceincites'
tp1604
I1
s(g469
g796
tp1605
I1
s(S'america'
p1606
S'thatawesomemoment'
p1607
tp1608
I2
s(g1119
g304
tp1609
I1
s(S'ferguson'
S'uniteblue'
p1610
tp1611
I41
s(g380
S'police'
p1612
tp1613
I1
s(S'ferguson'
p1614
g954
tp1615
I1
s(S'ferguson'
S'hiphop'
p1616
tp1617
I1
s(S'c'
g170
tp1618
I1
s(S'obama'
p1619
S'socialmedia'
p1620
tp1621
I1
s(g1385
g603
tp1622
I16
s(S'gaza'
p1623
g143
tp1624
I1
s(S'fergusonshooting'
p1625
g1154
tp1626
I1
s(g1512
S'ripericgarner'
p1627
tp1628
I1
s(g1238
S'police'
p1629
tp1630
I1
s(S'amadoudiallo'
p1631
S'policeagression'
p1632
tp1633
I1
s(S'america'
p1634
g478
tp1635
I1
s(g688
g204
tp1636
I1
s(g276
g446
tp1637
I1
s(g1456
g75
tp1638
I1
s(S'looters'
p1639
g1194
tp1640
I1
s(g896
g434
tp1641
I1
s(S'difference'
S'ferguson'
tp1642
I1
s(S'celeb'
p1643
S'safety4media'
p1644
tp1645
I1
s(g721
g152
tp1646
I2
s(S'c'
S'occupyhq'
p1647
tp1648
I1
s(g1207
S'riptrayvonmartin'
p1649
tp1650
I1
s(S'ferguson'
S'firsttake'
tp1651
I1
s(S'occupyhq'
p1652
g1217
tp1653
I2
s(S'ferguson'
S'justicefordonlemon'
tp1654
I1
s(S'michaelbrown'
S'mikebrownrally'
p1655
tp1656
I2
s(S'michaelbrown'
p1657
S'watchingjamesbrown'
p1658
tp1659
I1
s(S'hardball'
S'inners'
p1660
tp1661
I2
s(S'america'
p1662
g317
tp1663
I1
s(g768
g1036
tp1664
I1
s(S'opferguson'
p1665
S'palestine'
p1666
tp1667
I1
s(g622
g1189
tp1668
I1
s(g1443
g671
tp1669
I2
s(g1145
g31
tp1670
I1
s(g930
g787
tp1671
I1
s(S'ferguson'
S'yup'
p1672
tp1673
I2
s(g638
g1300
tp1674
I1
s(S'sorrynotsorry'
p1675
S'workbootprejudice'
p1676
tp1677
I1
s(g663
S'costa'
p1678
tp1679
I1
s(S'ferguson'
S'irs'
p1680
tp1681
I4
s(g335
S'p2'
p1682
tp1683
I1
s(S'inm'
p1684
g55
tp1685
I2
s(S'810style'
p1686
g1196
tp1687
I1
s(g121
g256
tp1688
I1
s(g1307
g518
tp1689
I1
s(S'anonymous'
p1690
S'justiceformikebrown'
tp1691
I2
s(S'handsup'
p1692
g873
tp1693
I2
s(g481
g1327
tp1694
I1
s(S'ferguson'
g230
tp1695
I1
s(g779
S'repubblicaditavecchio'
p1696
tp1697
I1
s(S'mikebrown'
S'naacp'
p1698
tp1699
I2
s(S'johncrawford'
p1700
g746
tp1701
I1
s(S'benghazi'
S'fastandfurious'
p1702
tp1703
I1
s(S'fiddlingwhileromeburns'
S'sisterpatriots'
tp1704
I1
s(S'ferguson'
S'race'
tp1705
I2
s(S'arrested'
p1706
S'ferguson'
tp1707
I1
s(S'ferguson'
S'ky'
p1708
tp1709
I11
s(S'gaza'
g1495
tp1710
I1
s(S'ferguson'
p1711
g1011
tp1712
I25
s(g1388
S'ferguson'
p1713
tp1714
I1
s(g735
g809
tp1715
I1
s(S'blackbarmitzvah'
S'ferguson'
tp1716
I1
s(S'ferguson'
p1717
g1154
tp1718
I1
s(S'censorship'
p1719
S'propaganda'
p1720
tp1721
I1
s(g365
g931
tp1722
I1
s(g859
S'icantbreathe'
p1723
tp1724
I2
s(S'ferguson'
g984
tp1725
I1
s(S'michaelbrown'
p1726
g511
tp1727
I2
s(S'ferguson'
S'headfake'
tp1728
I1
s(g931
g787
tp1729
I1
s(g966
g958
tp1730
I1
s(S'chicago'
p1731
S'twisters'
p1732
tp1733
I2
s(S'bsg'
S'ferguson'
tp1734
I1
s(S'ferguson'
S'stopracebating'
tp1735
I1
s(S'ferguson'
S'woodwardbernstein'
p1736
tp1737
I2
s(g142
g513
tp1738
I1
s(S'iftheygunnedmedown'
p1739
g1002
tp1740
I1
s(S'handsupdontshoot'
g1296
tp1741
I2
s(g1350
S'jurnos'
p1742
tp1743
I1
s(g369
S'michaelbrown'
p1744
tp1745
I1
s(g1449
S'michaelbrown'
tp1746
I1
s(g16
g595
tp1747
I2
s(S'ferguson'
S'smatterings'
tp1748
I1
s(S'ferguson'
S'hblsa'
p1749
tp1750
I9
s(g1252
g83
tp1751
I2
s(S'darrenwilson'
p1752
S'racism'
p1753
tp1754
I1
s(S'bds'
p1755
S'gaza'
p1756
tp1757
I1
s(S'fergusonriot'
S'tcot'
tp1758
I1
s(g1291
S'gaza'
tp1759
I1
s(S'morevideomoreeyes'
p1760
S'spreadtheword'
p1761
tp1762
I1
s(S'1stam'
S'ferguson'
tp1763
I1
s(g33
g407
tp1764
I1
s(g173
g467
tp1765
I1
s(S'asa14'
p1766
S'oscargrant'
p1767
tp1768
I1
s(g905
g283
tp1769
I1
s(S'mikebrown'
S'usa'
p1770
tp1771
I1
s(S'cashinin'
p1772
g1067
tp1773
I1
s(S'ferguson'
g1312
tp1774
I1
s(S'ferguson'
p1775
g7
tp1776
I2
s(S'blacklivesmatter'
S'mikebrown'
tp1777
I1
s(S'ferguson'
S'mogov'
tp1778
I1
s(g963
g395
tp1779
I1
s(g189
S'seinfeld'
p1780
tp1781
I1
s(S'gabbarism'
S'news'
tp1782
I2
s(S'ferguson'
S'mtvhottest'
tp1783
I1
s(g346
g789
tp1784
I4
s(g481
g1328
tp1785
I1
s(S'ferguson'
S'savageanimals'
tp1786
I1
s(S'mikebrown'
S'outfront'
p1787
tp1788
I1
s(S'college'
S'lbgt'
p1789
tp1790
I1
s(g177
g451
tp1791
I1
s(g1109
S'policebrutality'
p1792
tp1793
I1
s(g12
S'us'
p1794
tp1795
I3
s(g650
g167
tp1796
I1
s(S'dontshoot'
S'endangeredspecies'
tp1797
I1
s(g1403
g1540
tp1798
I1
s(g586
S'racism'
p1799
tp1800
I1
s(g472
g1456
tp1801
I1
s(S'handsupdontshoot'
S'wolfmovement'
tp1802
I1
s(g681
g451
tp1803
I1
s(g1540
S'missouri'
p1804
tp1805
I1
s(g1717
g155
tp1806
I1
s(g1408
g350
tp1807
I4
s(g431
S'dontshoot'
tp1808
I1
s(S'michaelbrown'
p1809
S'peace'
tp1810
I2
s(S'gretawire'
S'rednationrising'
tp1811
I4
s(S'ferguson'
S'whydarrenwilsonwhy'
tp1812
I1
s(S'justiceformikebrown'
p1813
g1095
tp1814
I2
s(S'ferguson'
S'inflammatory'
tp1815
I1
s(g544
S'nmos14'
p1816
tp1817
I1
s(S'blastem'
S'ferguson'
tp1818
I1
s(S'fail'
S'ferguson'
tp1819
I2
s(g1309
S'ferguson'
p1820
tp1821
I31
s(S'destiny'
p1822
S'god'
p1823
tp1824
I1
s(S'cnn'
p1825
S'michaelbrown'
tp1826
I3
s(g1420
g86
tp1827
I1
s(S'ferguson'
p1828
g890
tp1829
I1
s(S'ferguson'
S'safety4media'
tp1830
I4
s(S'ferguson'
S'morehouse'
p1831
tp1832
I1
s(S'ferguson'
g1732
tp1833
I2
s(g1508
g217
tp1834
I5
s(g620
g12
tp1835
I3
s(g222
S'ferguson'
p1836
tp1837
I13
s(S'apaop'
p1838
S'mikebrown'
p1839
tp1840
I5
s(S'ferguson'
S'strongarm'
tp1841
I1
s(S'ferguson'
S'rapwave'
tp1842
I1
s(g1477
S'retweetthat'
p1843
tp1844
I1
s(S'gazaunderattack'
p1845
S'policestate'
p1846
tp1847
I2
s(g889
S'michaelbrown'
p1848
tp1849
I1
s(S'ccot'
p1850
S'pjnet'
tp1851
I3
s(g1333
g1154
tp1852
I1
s(S'ferguson'
p1853
S'ok'
p1854
tp1855
I1
s(g1634
g465
tp1856
I1
s(g1152
S'wakeup'
p1857
tp1858
I1
s(g41
g886
tp1859
I1
s(S'ferguson'
S'hoovesup'
p1860
tp1861
I1
s(g1136
S'ferguson'
tp1862
I4
s(S'ferguson'
S'justlive'
p1863
tp1864
I4
s(S'mikebrown'
S'smh'
tp1865
I2
s(g1453
S'justice'
p1866
tp1867
I1
s(g105
g133
tp1868
I1
s(S'ferguson'
S'freedomofthepress'
tp1869
I1
s(S'ftp'
S'mikebrown'
tp1870
I2
s(g597
S'obama'
p1871
tp1872
I1
s(S'natgat2014'
p1873
S'rainbowuprising'
p1874
tp1875
I1
s(g1399
g74
tp1876
I1
s(g1678
g365
tp1877
I1
s(g429
S'repost'
p1878
tp1879
I1
s(g1755
S'ispeakoutbecause'
p1880
tp1881
I1
s(S'gunit'
p1882
g818
tp1883
I1
s(S'civildisobedience'
S'ferguson'
tp1884
I1
s(S'michaelbrown'
g1520
tp1885
I1
s(S'breakingnews'
S'michaelbrown'
tp1886
I1
s(S'ferguson'
p1887
g369
tp1888
I8
s(S'dogecoin'
p1889
S'news'
p1890
tp1891
I1
s(S'canada'
p1892
g893
tp1893
I2
s(S'fergusonshooting'
g1655
tp1894
I2
s(S'ferguson'
S'race101'
tp1895
I3
s(S'ftp'
S'handsupdontshoot'
tp1896
I2
s(S'aftermomentvideo'
p1897
S'anonymous'
tp1898
I1
s(S'ferguson'
g879
tp1899
I2
s(S'ferguson'
S'foia'
tp1900
I1
s(S'ferguson'
g1039
tp1901
I1
s(S'mikebrown'
S'nrx'
p1902
tp1903
I6
s(S'activistworldnewsnow'
p1904
S'opferguson'
p1905
tp1906
I2
s(g66
g344
tp1907
I1
s(S'handsupdontshoot'
p1908
g1009
tp1909
I2
s(S'bringtherain'
p1910
S'ferguson'
tp1911
I1
s(g903
g201
tp1912
I1
s(S'afp'
p1913
S'michaelbrown'
p1914
tp1915
I1
s(g1200
g31
tp1916
I1
s(S'mikebrown'
p1917
g1857
tp1918
I1
s(S'hbcus'
p1919
S'opferguson'
tp1920
I1
s(g1744
g1423
tp1921
I1
s(g1171
S'vote'
p1922
tp1923
I1
s(S'ferguson'
p1924
S'peopleberacist'
p1925
tp1926
I1
s(g718
g319
tp1927
I1
s(S'mom'
g1831
tp1928
I1
s(g620
g13
tp1929
I3
s(S'ferguson'
p1930
S'structuralracism'
p1931
tp1932
I1
s(S'balarts'
S'ferguson'
tp1933
I1
s(S'ferguson'
S'policing101'
tp1934
I1
s(S'darrenwils'
p1935
g304
tp1936
I1
s(S'ferguson'
p1937
S'rednationrising'
p1938
tp1939
I15
s(g372
g1065
tp1940
I1
s(S'power'
p1941
g78
tp1942
I1
s(g953
g1185
tp1943
I1
s(S'jasonbentley'
p1944
g1657
tp1945
I1
s(S'lies'
p1946
S'mikebrown'
tp1947
I1
s(g1686
g316
tp1948
I1
s(S'ferguson'
p1949
g658
tp1950
I7
s(S'ferguson'
S'martiallaw'
tp1951
I11
s(S'ferguson'
S'natguardwatch'
tp1952
I4
s(S'ferguson'
S'mfs'
tp1953
I1
s(S'eeuu'
S'lafoto'
p1954
tp1955
I1
s(S'ferguson'
p1956
S'syria'
p1957
tp1958
I2
s(S'ferguson'
p1959
S'liars'
p1960
tp1961
I2
s(S'communists'
p1962
S'ferguson'
p1963
tp1964
I1
s(S'ferguson'
S'thankgod'
tp1965
I1
s(S'ferguson'
S'ourstrugglesareone'
p1966
tp1967
I1
s(g145
S'sharpton'
p1968
tp1969
I7
s(S'iammikebrown'
p1970
S'warzone'
tp1971
I1
s(S'guard'
p1972
g338
tp1973
I1
s(S'ferguson'
g135
tp1974
I1
s(S'newsonenow'
S'nojustice'
p1975
tp1976
I5
s(S'batonrouge'
p1977
S'ferguson'
tp1978
I3
s(g390
g1935
tp1979
I1
s(S'mikebrown'
S'peacerally'
p1980
tp1981
I2
s(S'college'
g1039
tp1982
I1
s(S'flexin'
S'iftheygunnedmedown'
tp1983
I1
s(g944
S'downtownatl'
p1984
tp1985
I1
s(g986
g336
tp1986
I1
s(S'bullshit'
p1987
S'justiceformikebrown'
tp1988
I1
s(S'benghazi'
p1989
g1451
tp1990
I1
s(S'dontshoot'
p1991
g1196
tp1992
I1
s(g585
S'plantation'
p1993
tp1994
I1
s(g193
g1941
tp1995
I1
s(S'tcot'
S'tt'
p1996
tp1997
I1
s(g876
S'policestate'
tp1998
I1
s(S'handsupdontshoot'
p1999
g1113
tp2000
I1
s(S'blackpussies'
S'ferguson'
tp2001
I1
s(g1396
g979
tp2002
I1
s(S'disgrace'
S'ferguson'
tp2003
I1
s(g1866
g1328
tp2004
I1
s(g636
g1993
tp2005
I1
s(S'departmentofdefense'
p2006
g926
tp2007
I1
s(g1726
g1468
tp2008
I1
s(g1247
g586
tp2009
I2
s(g390
g299
tp2010
I1
s(g826
g99
tp2011
I1
s(S'ferguson'
S'immigration'
tp2012
I1
s(g1044
g1451
tp2013
I1
s(g1184
g1614
tp2014
I1
s(g638
g1058
tp2015
I1
s(g377
g849
tp2016
I1
s(g1138
g1461
tp2017
I2
s(g1591
S'nmos14'
p2018
tp2019
I7
s(S'p2'
S'pjnet'
tp2020
I1
s(g1678
g664
tp2021
I1
s(S'mikebrown'
p2022
g20
tp2023
I1
s(S'ronpaul'
p2024
S'tlot'
tp2025
I1
s(g65
S'senseless'
p2026
tp2027
I1
s(S'ferguson'
g439
tp2028
I2
s(S'justiceformikebrown'
S'nmos14'
tp2029
I7
s(g1189
g623
tp2030
I1
s(S'atlanta'
S'ferguson'
tp2031
I12
s(S'alternet'
S'ferguson'
tp2032
I1
s(g791
g1524
tp2033
I1
s(S'amadoudiallo'
p2034
S'ferguson'
tp2035
I2
s(S'hls'
p2036
S'mom'
tp2037
I1
s(S'economie'
p2038
g1491
tp2039
I1
s(g252
S'swat'
p2040
tp2041
I1
s(g1678
g787
tp2042
I1
s(g1379
g661
tp2043
I1
s(S'audiobook'
p2044
g180
tp2045
I1
s(g235
g1314
tp2046
I2
s(S'2a'
p2047
S'ferguson'
tp2048
I2
s(g1717
g1334
tp2049
I3
s(g1300
g1374
tp2050
I1
s(g1549
g1456
tp2051
I2
s(g34
g51
tp2052
I1
s(S'anonymous'
S'breaking'
p2053
tp2054
I7
s(g1252
g82
tp2055
I2
s(g702
S'handsupmemphis'
p2056
tp2057
I1
s(S'lnyhbt'
p2058
S'teaparty'
p2059
tp2060
I2
s(S'ferguson'
S'trayvon'
tp2061
I4
s(g1991
S'gm'
p2062
tp2063
I1
s(g771
g1228
tp2064
I1
s(g1686
g2062
tp2065
I1
s(S'ferguson'
S'irony'
tp2066
I1
s(S'facepalm'
S'ferguson'
tp2067
I1
s(S'handsupdontshoot'
S'lapd'
p2068
tp2069
I2
s(g982
g75
tp2070
I1
s(S'handsup'
S'handsupmemphis'
tp2071
I1
s(g939
S'food'
p2072
tp2073
I1
s(g1972
g288
tp2074
I1
s(S'mikebrown'
S'palestine'
p2075
tp2076
I5
s(S'boycottisrael'
p2077
g631
tp2078
I3
s(S'ferguson'
S'stoprush'
p2079
tp2080
I4
s(g1505
S'scnews'
p2081
tp2082
I1
s(g735
g586
tp2083
I1
s(g591
g308
tp2084
I4
s(g1189
g613
tp2085
I1
s(S'ferguson'
S'stopwhitepeople2014'
tp2086
I1
s(g1141
g531
tp2087
I4
s(g776
g244
tp2088
I2
s(S'ferguson'
S'taser'
tp2089
I2
s(g650
g496
tp2090
I1
s(g671
g1198
tp2091
I1
s(S'ferguson'
p2092
g1675
tp2093
I1
s(g1399
g1456
tp2094
I1
s(S'49ers'
p2095
S'news'
p2096
tp2097
I1
s(g606
g641
tp2098
I3
s(S'ferguson'
S'humantrafficking'
tp2099
I1
s(g92
g723
tp2100
I1
s(S'protests'
p2101
S'taser'
tp2102
I1
s(S'justicemikebrown'
p2103
S'police'
p2104
tp2105
I1
s(S'alsharpton'
p2106
S'ferguson'
p2107
tp2108
I1
s(g102
g1587
tp2109
I1
s(S'michaelbrown'
S'ripmichaelbrown'
p2110
tp2111
I1
s(S'ferguson'
S'nannystate'
p2112
tp2113
I1
s(g911
g68
tp2114
I1
s(S'ferguson'
p2115
S'uncg'
p2116
tp2117
I1
s(S'dontshoot'
p2118
S'losminidelsonido'
p2119
tp2120
I1
s(g646
g392
tp2121
I2
s(S'college'
g1034
tp2122
I1
s(S'ferguson'
S'kentstate'
tp2123
I2
s(g405
g806
tp2124
I2
s(g1931
g167
tp2125
I1
s(g693
g3
tp2126
I1
s(g861
g1486
tp2127
I1
s(S'fergusonpd'
p2128
S'mikebrown'
tp2129
I2
s(g458
g601
tp2130
I1
s(S'ferguson'
g1527
tp2131
I2
s(g1595
S'police'
p2132
tp2133
I27
s(g718
g764
tp2134
I1
s(S'palestine'
S'teargas'
p2135
tp2136
I2
s(S'indyref'
S'voteyes'
tp2137
I1
s(g844
S'ferguson'
tp2138
I38
s(g1634
g479
tp2139
I1
s(g1846
S'stoparmingisrael'
p2140
tp2141
I1
s(g1569
g121
tp2142
I1
s(S'dontshoothandsup'
S'ferguson'
tp2143
I7
s(g491
g1483
tp2144
I4
s(S'humanrights'
p2145
g1839
tp2146
I5
s(g479
g465
tp2147
I1
s(g1159
S'ferguson'
p2148
tp2149
I1
s(S'fergusonlivestream'
p2150
S'michaelbrown'
tp2151
I1
s(S'us'
p2152
g513
tp2153
I1
s(S'accountabiity'
S'ferguson'
tp2154
I2
s(S'americans'
p2155
g551
tp2156
I1
s(g974
S'rednationrising'
p2157
tp2158
I1
s(S'catfish'
p2159
S'ferguson'
tp2160
I1
s(S'ferguson'
S'p2'
tp2161
I25
s(S'ferguson'
S'live'
tp2162
I5
s(g1248
g1993
tp2163
I1
s(g691
g1079
tp2164
I3
s(g372
g1647
tp2165
I1
s(g1753
S'stlouis'
p2166
tp2167
I1
s(g1516
S'yyyoooddduuurrrrtttyyyy'
p2168
tp2169
I1
s(g699
g1390
tp2170
I2
s(S'mikebrown'
p2171
g1854
tp2172
I1
s(g1094
S'peaceinferguson'
p2173
tp2174
I20
s(S'ferguson'
S'istandwithobama'
tp2175
I1
s(g2034
S'michaelbrown'
p2176
tp2177
I1
s(g2053
S'opferguson'
tp2178
I7
s(S'ferguson'
S'sharedvalues'
tp2179
I1
s(g453
g762
tp2180
I2
s(g155
g1334
tp2181
I1
s(S'ferguson'
p2182
g1430
tp2183
I1
s(S'michaelbrown'
S'whurnews'
tp2184
I1
s(S'livestream'
p2185
g1905
tp2186
I2
s(g776
g996
tp2187
I1
s(S'injustice'
p2188
S'mikebrown'
tp2189
I1
s(g62
S'tcot'
tp2190
I1
s(S'ferguson'
S'potus'
tp2191
I3
s(S'newsone'
p2192
S'newsonenow'
tp2193
I7
s(S'ferguson'
S'ncat'
tp2194
I17
s(S'handsupdontshoot'
p2195
g384
tp2196
I1
s(S'ferguson'
S'mlk'
tp2197
I6
s(g31
g1045
tp2198
I1
s(g445
S'raw'
p2199
tp2200
I1
s(g276
g2199
tp2201
I1
s(S'lord'
p2202
S'truth'
p2203
tp2204
I1
s(S'c'
g373
tp2205
I1
s(S'ps'
p2206
S'udi'
p2207
tp2208
I1
s(S'news'
S'world'
tp2209
I3
s(S'atlanta'
p2210
g1312
tp2211
I1
s(S'police'
p2212
g1792
tp2213
I1
s(S'tcot'
p2214
S'uniteblue'
p2215
tp2216
I12
s(S'handsupdontshoot'
g1672
tp2217
I2
s(S'atlanta'
p2218
g1627
tp2219
I1
s(g650
g1931
tp2220
I1
s(g265
g1289
tp2221
I2
s(g478
g465
tp2222
I1
s(S'ferguson'
p2223
g935
tp2224
I1
s(S'ferguson'
g2188
tp2225
I2
s(g163
g1720
tp2226
I1
s(S'fergusonpd'
S'militarizedpolice'
tp2227
I1
s(S'ripmikebrown'
p2228
S'stl'
tp2229
I1
s(S'ferguson'
p2230
S'geoengineering'
p2231
tp2232
I1
s(S'mikebrown'
g1134
tp2233
I1
s(S'iftheygunnedmedown'
S'mikebrown'
tp2234
I35
s(S'gaza'
p2235
g186
tp2236
I3
s(g1208
g1649
tp2237
I1
s(g133
g148
tp2238
I1
s(g615
S'usa'
p2239
tp2240
I1
s(g636
g1799
tp2241
I1
s(g1977
S'nmos14'
tp2242
I3
s(S'ericgarner'
p2243
S'nyc'
p2244
tp2245
I1
s(g616
g2239
tp2246
I1
s(S'hank_johnson'
p2247
S'us_news'
p2248
tp2249
I1
s(S'ferguson'
S'theydontreallycareaboutus'
tp2250
I1
s(S'ferguson'
S'michaelbrownjustice'
tp2251
I1
s(g520
g1228
tp2252
I1
s(S'263chat'
p2253
S'ferguson'
p2254
tp2255
I1
s(g44
g410
tp2256
I2
s(S'injustice'
S'justiceformikebrown'
tp2257
I1
s(g1889
g3
tp2258
I1
s(S'handsup'
p2259
S'justice4mikebrown'
p2260
tp2261
I1
s(g1412
g182
tp2262
I1
s(S'fergusonshooting'
p2263
g948
tp2264
I1
s(S'ferguson'
S'freedom'
tp2265
I4
s(S'ferguson'
S'obama'
tp2266
I23
s(S'mikebrown'
g644
tp2267
I5
s(S'ferguson'
S'usf'
p2268
tp2269
I1
s(g885
g42
tp2270
I1
s(S'abuseofpower'
p2271
S'policebrutality'
tp2272
I1
s(g1383
S'ferguson'
tp2273
I4
s(S'tcot'
p2274
g250
tp2275
I7
s(S'ericholder'
S'obama'
tp2276
I3
s(g858
g1723
tp2277
I2
s(g588
g1346
tp2278
I1
s(g1322
g500
tp2279
I1
s(S'darrenwilson'
p2280
g383
tp2281
I1
s(S'mikebrown'
S'oppressionliveson'
p2282
tp2283
I1
s(g1616
S'justiceformikebrown'
tp2284
I1
s(g622
g612
tp2285
I1
s(S'fb'
S'topnews'
tp2286
I1
s(g1333
g156
tp2287
I1
s(g140
S'mikebrown'
tp2288
I1
s(g1560
S'ferguson'
p2289
tp2290
I1
s(S'ferguson'
S'marijuana'
tp2291
I2
s(g1507
g217
tp2292
I5
s(S'martiallaw'
g268
tp2293
I1
s(g1119
g305
tp2294
I1
s(S'ferguson'
p2295
g1142
tp2296
I2
s(g1147
g743
tp2297
I1
s(g2182
g1429
tp2298
I1
s(g496
g167
tp2299
I1
s(S'ferguson'
S'srilanka'
p2300
tp2301
I1
s(S'ferguson'
p2302
S'parenting'
p2303
tp2304
I1
s(S'handsupdontshoot'
S'istandwithferguson'
p2305
tp2306
I1
s(g545
S'ferguson'
p2307
tp2308
I2
s(g120
g1307
tp2309
I1
s(g1508
g216
tp2310
I5
s(g1566
g1294
tp2311
I1
s(S'justicefortrayvon'
p2312
g1198
tp2313
I1
s(g1252
g737
tp2314
I2
s(S'detroit'
p2315
S'nmos14'
tp2316
I1
s(S'ferguson'
p2317
g1941
tp2318
I1
s(S'freedomofspeech'
p2319
S'opferguson'
tp2320
I1
s(g16
S'mikebrown'
p2321
tp2322
I2
s(S'alllove'
p2323
S'tribbits'
p2324
tp2325
I3
s(g3
g694
tp2326
I1
s(g85
S'usa'
p2327
tp2328
I1
s(S'police'
S'protest'
tp2329
I1
s(S'handsup'
S'missouri'
tp2330
I1
s(S'ferguson'
S'ocra'
tp2331
I1
s(g320
g505
tp2332
I1
s(S'cogic'
p2333
S'ferguson'
tp2334
I1
s(g766
g1871
tp2335
I1
s(S'anonymous'
p2336
S'freepalestine'
p2337
tp2338
I1
s(S'attorney'
p2339
S'question'
p2340
tp2341
I1
s(g836
S'presstvgaza'
p2342
tp2343
I2
s(g547
S'michaelbrown'
tp2344
I2
s(g258
S'anonymous'
p2345
tp2346
I1
s(S'justiceformikebrown'
g575
tp2347
I3
s(g1582
g683
tp2348
I2
s(g716
g723
tp2349
I1
s(S'fergusonshooting'
p2350
S'purpleandchrome'
p2351
tp2352
I1
s(g1702
S'ferguson'
tp2353
I1
s(S'bahrain'
S'ferguson'
tp2354
I1
s(S'ferguson'
S'oliver'
tp2355
I1
s(g1461
g1090
tp2356
I2
s(g2182
S'vebirguengelecek'
p2357
tp2358
I1
s(S'ismellacoverup'
p2359
S'mikebrown'
tp2360
I1
s(S'outfront'
p2361
g1732
tp2362
I2
s(g1456
g451
tp2363
I1
s(S'ferguson'
p2364
g442
tp2365
I1
s(S'ferguson'
p2366
g206
tp2367
I3
s(g352
g96
tp2368
I1
s(S'mom'
p2369
g1854
tp2370
I1
s(g2369
S'okc'
p2371
tp2372
I1
s(g1279
g19
tp2373
I1
s(S'atl'
S'ripmikebrown'
p2374
tp2375
I2
s(g1483
g349
tp2376
I4
s(S'mikebrown'
g833
tp2377
I1
s(S'hardball'
p2378
S'maddow'
p2379
tp2380
I1
s(g778
g1696
tp2381
I1
s(S'nojusticenopeace'
p2382
S'rallyforferguson'
tp2383
I1
s(S'alsicebucketchallenge'
p2384
g1129
tp2385
I1
s(g966
S'shoplifting'
p2386
tp2387
I1
s(g491
g1408
tp2388
I4
s(g573
S'ferguson'
p2389
tp2390
I1
s(g164
g1720
tp2391
I1
s(S'ferguson'
S'politicsnation'
p2392
tp2393
I1
s(g1772
S'ferguson'
p2394
tp2395
I1
s(S'hardball'
S'msnbc'
tp2396
I2
s(g2058
g1007
tp2397
I4
s(g696
S'ferguson'
p2398
tp2399
I1
s(S'ferguson'
S'journalist'
p2400
tp2401
I1
s(g1602
S'thugs'
p2402
tp2403
I1
s(g33
S'ferguson'
p2404
tp2405
I1
s(S'mikebrown'
p2406
g384
tp2407
I1
s(S'nmos14'
g558
tp2408
I1
s(S'missouri'
p2409
S'protest'
p2410
tp2411
I1
s(S'atlanta'
p2412
g71
tp2413
I2
s(S'byp100'
p2414
S'mikebrown'
tp2415
I1
s(S'justice'
g1809
tp2416
I2
s(S'doj'
p2417
g926
tp2418
I2
s(S'handsup'
p2419
S'us'
p2420
tp2421
I2
s(g796
g1682
tp2422
I1
s(g105
g148
tp2423
I1
s(S'ferguson'
p2424
g2081
tp2425
I4
s(S'ferguson'
S'hypocrites'
p2426
tp2427
I1
s(S'canada'
S'nz'
p2428
tp2429
I1
s(g1253
g161
tp2430
I2
s(S'gop'
S'p2'
p2431
tp2432
I2
s(g787
g664
tp2433
I1
s(S'ferguson'
S'theworldiswatching'
tp2434
I1
s(S'ferguson'
S'indy'
tp2435
I2
s(S'ferguson'
S'la'
p2436
tp2437
I2
s(S'mikebrown'
g1831
tp2438
I1
s(S'ferguson'
S'racismneverend'
tp2439
I1
s(g317
S'world'
p2440
tp2441
I1
s(g549
g539
tp2442
I4
s(g690
S'ncat'
p2443
tp2444
I1
s(g2412
g72
tp2445
I3
s(S'ferguson'
S'whitehouse'
p2446
tp2447
I1
s(g951
g977
tp2448
I1
s(S'crisis'
p2449
g920
tp2450
I1
s(S'ferguson'
S'mhp'
tp2451
I1
s(g2259
g1473
tp2452
I1
s(g58
g1277
tp2453
I2
s(g161
g737
tp2454
I2
s(g1014
S'ferguson'
p2455
tp2456
I1
s(S'ferguson'
S'netneutrality'
tp2457
I1
s(g1444
g672
tp2458
I1
s(S'ferguson'
g2103
tp2459
I1
s(S'ferguson'
g2110
tp2460
I6
s(S'commonsense'
p2461
g554
tp2462
I2
s(g247
g240
tp2463
I1
s(g118
g1065
tp2464
I1
s(g1804
g1404
tp2465
I1
s(S'dontshoot'
S'opferguson'
tp2466
I1
s(g235
S'selfdefense'
p2467
tp2468
I1
s(g1960
S'tellthetruth'
p2469
tp2470
I1
s(S'ferguson'
S'whiteprivilege'
tp2471
I6
s(S'byu'
p2472
S'lds'
p2473
tp2474
I1
s(g930
g786
tp2475
I1
s(g1391
g700
tp2476
I2
s(S'dagr8fm'
p2477
S'dontshoot'
tp2478
I2
s(g1399
g75
tp2479
I1
s(S'befree'
S'mikebrown'
tp2480
I1
s(S'ferguson'
S'silenceislouderthanscreams'
tp2481
I1
s(S'ocra'
p2482
S'p2'
p2483
tp2484
I1
s(g1044
g1200
tp2485
I1
s(g1989
g31
tp2486
I1
s(g428
S'policebrutality'
p2487
tp2488
I1
s(S'tcot'
p2489
g1732
tp2490
I2
s(g1333
g870
tp2491
I1
s(g1569
g255
tp2492
I1
s(S'mikebrown'
p2493
g2244
tp2494
I1
s(g743
g69
tp2495
I1
s(S'aztech'
p2496
S'silicondesert'
p2497
tp2498
I1
s(S'jobsila'
S'twitter'
p2499
tp2500
I2
s(S'ferguson'
S'journarrest'
tp2501
I1
s(S'cold'
p2502
g1196
tp2503
I1
s(S'baltimoreforferguson'
p2504
S'fergusonshooting'
tp2505
I1
s(S'immune'
p2506
S'mikebrown'
tp2507
I1
s(S'ferguson'
p2508
S'inked'
p2509
tp2510
I1
s(g1569
g1306
tp2511
I1
s(S'efc'
S'lcfc'
tp2512
I1
s(S'ferguson'
S'psa'
tp2513
I1
s(g853
S'tcot'
tp2514
I1
s(S'cnn'
p2515
S'police'
p2516
tp2517
I3
s(S'mikebrown'
S'oakland'
p2518
tp2519
I1
s(g1625
g1334
tp2520
I1
s(S'wearetargets'
p2521
g942
tp2522
I2
s(g746
g77
tp2523
I4
s(S'ferguson'
p2524
S'freeemall'
p2525
tp2526
I1
s(g568
S'ferguson'
p2527
tp2528
I1
s(g27
g302
tp2529
I9
s(S'ferguson'
S'militantpolice'
tp2530
I2
s(S'anonymous'
p2531
g229
tp2532
I2
s(g2443
g1079
tp2533
I1
s(S'dontshoot'
S'michaelbrown'
tp2534
I4
s(S'fergusonshooting'
S'obama'
tp2535
I1
s(g639
g1058
tp2536
I1
s(g1044
g1145
tp2537
I1
s(g2398
g2206
tp2538
I1
s(S'bemad'
S'ferguson'
tp2539
I1
s(g436
g2248
tp2540
I1
s(g1005
g769
tp2541
I1
s(g1690
S'stl'
p2542
tp2543
I2
s(g856
g1134
tp2544
I1
s(g2079
S'tcot'
tp2545
I2
s(S'ferguson'
S'strelkov'
tp2546
I1
s(g1470
g2351
tp2547
I1
s(S'p2'
p2548
g214
tp2549
I1
s(g530
g1142
tp2550
I2
s(g1156
g196
tp2551
I1
s(S'biggovsucks'
p2552
g1427
tp2553
I1
s(S'equalaccess'
p2554
S'iraq'
tp2555
I1
s(g1917
g1152
tp2556
I1
s(g308
g2059
tp2557
I5
s(g390
g305
tp2558
I1
s(g923
g764
tp2559
I1
s(g1309
g1241
tp2560
I9
s(g1366
S'handsupdontshoot'
p2561
tp2562
I1
s(S'ferguson'
g1946
tp2563
I1
s(g132
g2022
tp2564
I1
s(g2034
S'ericgarner'
p2565
tp2566
I1
s(g798
g1107
tp2567
I1
s(g610
S'ripmikebrown'
p2568
tp2569
I1
s(g1706
S'freepress'
tp2570
I1
s(S'ferguson'
p2571
g2202
tp2572
I1
s(S'ferguson'
g326
tp2573
I1
s(S'michaelbrown'
p2574
S'tgdn'
p2575
tp2576
I8
s(g54
g1684
tp2577
I2
s(S'exodus'
p2578
S'honorsociety'
p2579
tp2580
I1
s(S'erinburnett'
S'ferguson'
tp2581
I1
s(g1131
S'race'
p2582
tp2583
I1
s(S'saverrepublic'
S'tcot'
tp2584
I1
s(S'p2'
g1458
tp2585
I1
s(S'dorianjohnson'
p2586
S'ferguson'
p2587
tp2588
I3
s(S'cleveland'
p2589
g240
tp2590
I1
s(S'dageneralquotes'
p2591
g316
tp2592
I1
s(g2317
g194
tp2593
I1
s(g847
S'nsa'
p2594
tp2595
I1
s(g74
g1456
tp2596
I1
s(g203
g66
tp2597
I1
s(S'bds'
p2598
g1846
tp2599
I1
s(g1552
S'coverup'
tp2600
I1
s(g690
S'ferguson'
p2601
tp2602
I1
s(g1935
g305
tp2603
I1
s(g6
g1050
tp2604
I2
s(g2260
g1473
tp2605
I1
s(S'ferguson'
S'standup'
p2606
tp2607
I1
s(S'jobs'
g2499
tp2608
I2
s(g2417
g927
tp2609
I1
s(g422
g1107
tp2610
I1
s(S'ferguson'
g1319
tp2611
I2
s(g1904
g2185
tp2612
I2
s(g963
g396
tp2613
I1
s(S'ferguson'
g2101
tp2614
I1
s(g108
S'msnbc'
p2615
tp2616
I1
s(S'handsupdontshoot'
S'itsbiggerthanyou'
tp2617
I1
s(g2366
g1794
tp2618
I12
s(g2461
g1277
tp2619
I2
s(g681
g75
tp2620
I1
s(g1908
S'johncrawford'
p2621
tp2622
I2
s(g1956
S'icelandicvolcano'
p2623
tp2624
I1
s(g2312
g1444
tp2625
I1
s(g658
g2058
tp2626
I2
s(g1449
S'fergusonshooting'
p2627
tp2628
I1
s(S'blackgods'
S'ferguson'
tp2629
I1
s(S'racecard'
p2630
S'tcot'
tp2631
I3
s(g390
g304
tp2632
I1
s(g302
g966
tp2633
I1
s(S'ferguson'
S'fergusonshooting'
tp2634
I50
s(S'ferguson'
S'vibetownhall'
p2635
tp2636
I4
s(S'ferguson'
p2637
S'staypeaceful'
p2638
tp2639
I1
s(g2472
S'ferguson'
p2640
tp2641
I1
s(S'ferguson'
g2428
tp2642
I1
s(S'hedyepstein'
p2643
g442
tp2644
I1
s(S'michaelbrown'
S'mikebrown'
tp2645
I29
s(S'gaza'
g784
tp2646
I1
s(S'crisisinferguson'
p2647
S'ferguson'
tp2648
I1
s(S'mikebrown'
g1268
tp2649
I2
s(g1451
g1045
tp2650
I1
s(g1612
g625
tp2651
I1
s(S'ferguson'
S'gop'
p2652
tp2653
I7
s(S'freepress'
p2654
S'gunsvscameras'
p2655
tp2656
I1
s(S'outfront'
p2657
g1142
tp2658
I2
s(g19
g2022
tp2659
I1
s(S'ferguson'
p2660
g1761
tp2661
I1
s(S'tcot'
g1348
tp2662
I1
s(S'ferguson'
S'heisnotdispoable'
tp2663
I1
s(S'michaelbrown'
S'universityofkentucky'
p2664
tp2665
I2
s(S'standwithferguson'
p2666
g2542
tp2667
I1
s(S'atx'
p2668
S'dontshoot'
tp2669
I1
s(g1731
S'nyc'
p2670
tp2671
I2
s(S'atl'
p2672
S'mikebrown'
tp2673
I1
s(g1385
g1076
tp2674
I16
s(S'ferguson'
S'firsttimeforeverything'
tp2675
I1
s(S'u062du0645u0635'
p2676
S'u0633u0648u0631u064au0627'
p2677
tp2678
I1
s(S'ferguson'
g1563
tp2679
I1
s(g1044
g1201
tp2680
I1
s(g1731
g2361
tp2681
I2
s(g1060
S'tcot'
p2682
tp2683
I3
s(g2112
S'uniteblue'
p2684
tp2685
I1
s(S'ferguson'
g2359
tp2686
I1
s(g1216
S'ows'
p2687
tp2688
I2
s(S'mikebrown'
S'obama'
tp2689
I4
s(g1897
S'ferguson'
tp2690
I1
s(S'bordercrisis'
p2691
S'isis'
p2692
tp2693
I1
s(S'dontshoot'
S'stl'
p2694
tp2695
I1
s(g885
S'ferguson'
p2696
tp2697
I3
s(S'mikebrown'
g2112
tp2698
I1
s(g586
g1993
tp2699
I1
s(g492
g349
tp2700
I4
s(S'news'
p2701
S'ucwradio'
p2702
tp2703
I1
s(g1662
g1991
tp2704
I1
s(S'johncrawford'
p2705
S'jutsticeforericgarner'
p2706
tp2707
I1
s(g103
g1587
tp2708
I1
s(S'fsu'
p2709
S'mikebrown'
p2710
tp2711
I1
s(S'ferguson'
p2712
g849
tp2713
I1
s(g585
g1247
tp2714
I1
s(S'ferguson'
g876
tp2715
I1
s(g467
g534
tp2716
I1
s(S'ferguson'
S'tytlive'
tp2717
I3
s(g1866
g482
tp2718
I1
s(S'armedchairdetectives'
p2719
S'ferguson'
tp2720
I2
s(S'anonymous'
S'reblop'
p2721
tp2722
I1
s(S'handsupdontshoot'
g456
tp2723
I1
s(S'healing'
p2724
g2202
tp2725
I1
s(g156
g1154
tp2726
I1
s(g1580
g2575
tp2727
I11
s(S'ferguson'
S'soundcloud'
tp2728
I1
s(g1504
g2081
tp2729
I1
s(g1949
g2058
tp2730
I4
s(g1711
g1012
tp2731
I17
s(g193
g77
tp2732
I1
s(S'ericholder'
p2733
g886
tp2734
I1
s(S'ripmikebrown'
p2735
g1513
tp2736
I1
s(g1271
S'mikebrownnola'
p2737
tp2738
I1
s(S'copwatch'
p2739
S'ftp'
p2740
tp2741
I1
s(g963
g816
tp2742
I1
s(g1813
g2173
tp2743
I1
s(g1247
g1993
tp2744
I1
s(g22
S'ferguson'
p2745
tp2746
I1
s(g2578
S'ferguson'
p2747
tp2748
I1
s(S'ferguson'
S'nypd'
tp2749
I3
s(S'ferguson'
g2319
tp2750
I1
s(g95
g804
tp2751
I1
s(S'ferguson'
S'nmos'
tp2752
I2
s(S'ferguson'
g1354
tp2753
I1
s(g1863
S'mikebrown'
tp2754
I4
s(S'fergusonshooting'
S'realconcerns'
tp2755
I4
s(S'dorianjohnson'
S'tcot'
tp2756
I1
s(g903
g906
tp2757
I1
s(g1902
S'waronwhites'
tp2758
I5
s(g1330
S'youtube'
p2759
tp2760
I1
s(S'ezellford'
S'mikebrown'
tp2761
I1
s(g107
g2615
tp2762
I1
s(g549
g804
tp2763
I1
s(S'ferguson'
S'nigeriahiddenwar'
tp2764
I1
s(S'quagmire'
p2765
g839
tp2766
I1
s(g655
S'ferguson'
p2767
tp2768
I1
s(S'orca'
S'tcot'
tp2769
I1
s(g2487
g429
tp2770
I1
s(S'diversity'
S'dontshoot'
tp2771
I3
s(S'1stamendment'
p2772
g2655
tp2773
I1
s(g2333
S'justiceformikebrown'
tp2774
I1
s(S'ripmikebrown'
p2775
g1113
tp2776
I1
s(S'constitution'
p2777
g1937
tp2778
I6
s(S'angelajim'
p2779
g2254
tp2780
I1
s(S'acon'
p2781
g896
tp2782
I1
s(g693
g4
tp2783
I1
s(g911
g743
tp2784
I1
s(g2312
g672
tp2785
I1
s(g1517
g2168
tp2786
I1
s(S'breaking'
p2787
S'michaelbrown'
tp2788
I13
s(S'ferguson'
S'hardtimes'
tp2789
I1
s(S'iraq'
p2790
S'jesus'
tp2791
I1
s(g2062
g1196
tp2792
I1
s(S'handsup'
p2793
g730
tp2794
I1
s(g314
g1941
tp2795
I1
s(g2591
g1196
tp2796
I1
s(g1413
g182
tp2797
I1
s(g911
g1147
tp2798
I1
s(g2058
g308
tp2799
I4
s(S'ksdk'
S'mikebrown'
tp2800
I1
s(g441
g2643
tp2801
I1
s(S'blacktwitter'
S'mikebrown'
tp2802
I2
s(g1065
g171
tp2803
I1
s(g1390
g700
tp2804
I2
s(S'ferguson'
S'hannity'
tp2805
I1
s(S'change'
p2806
S'ferguson'
tp2807
I1
s(S'3ga'
p2808
S'ferguson'
p2809
tp2810
I1
s(g2263
S'racism'
p2811
tp2812
I1
s(g761
g454
tp2813
I2
s(g177
g1549
tp2814
I1
s(S'ferguson'
S'freeawkwardduck'
tp2815
I1
s(S'ferguson'
p2816
S'righttorecord'
p2817
tp2818
I1
s(S'michael'
S'mikebrown'
tp2819
I2
s(S'chiefjackson'
p2820
g2638
tp2821
I1
s(S'freepalestine'
g759
tp2822
I1
s(g1336
S'fergusonpd'
tp2823
I1
s(S'anonymous'
S'newsonenow'
tp2824
I3
s(S'gaza'
g1966
tp2825
I1
s(g30
g1045
tp2826
I1
s(S'news'
S'politics'
tp2827
I3
s(S'ferguson'
p2828
g39
tp2829
I1
s(g2706
S'nmos14'
p2830
tp2831
I1
s(g1104
g819
tp2832
I1
s(S'ferguson'
S'ronjohnson'
tp2833
I2
s(S'ferguson'
g2506
tp2834
I1
s(g1887
g1423
tp2835
I1
s(S'classwar'
S'comrade'
tp2836
I1
s(g1120
g634
tp2837
I1
s(S'bejust'
p2838
S'mikebrown'
tp2839
I1
s(S'ferguson'
g1919
tp2840
I1
s(g2339
S'ferguson'
p2841
tp2842
I1
s(g91
g1546
tp2843
I1
s(g428
g1878
tp2844
I1
s(g1200
g1451
tp2845
I1
s(S'ferguson'
S'noprofessionalism'
tp2846
I1
s(S'ferguson'
S'idiots'
tp2847
I1
s(g2345
g259
tp2848
I1
s(g1024
g1857
tp2849
I1
s(S'opferguson'
p2850
S'teaparty'
tp2851
I1
s(g2574
g1580
tp2852
I19
s(g66
g204
tp2853
I1
s(g370
g1423
tp2854
I1
s(g2280
g384
tp2855
I1
s(g1052
g974
tp2856
I1
s(S'handsup'
g2694
tp2857
I6
s(S'u062du0644u0628'
p2858
g2676
tp2859
I1
s(S'chips'
p2860
S'usa'
p2861
tp2862
I1
s(S'ferguson'
g1655
tp2863
I2
s(g2336
S'handsup'
p2864
tp2865
I1
s(S'ferguson'
p2866
g2145
tp2867
I5
s(g390
g634
tp2868
I1
s(g515
g2119
tp2869
I1
s(g2705
g2830
tp2870
I3
s(g761
S'ferguson'
p2871
tp2872
I2
s(g746
g194
tp2873
I1
s(g696
g2207
tp2874
I1
s(S'ferguson'
p2875
g1767
tp2876
I1
s(S'anacondavidwednesdayonvevo'
p2877
g272
tp2878
I1
s(g448
S'throwbackthursday'
p2879
tp2880
I5
s(g1094
g1813
tp2881
I113
s(g189
g562
tp2882
I1
s(g1253
g83
tp2883
I2
s(g1989
g30
tp2884
I1
s(S'mikebrown'
g1092
tp2885
I1
s(S'ferguson'
S'mtpol'
tp2886
I1
s(g1555
g1413
tp2887
I5
s(g1823
S'purpose'
p2888
tp2889
I1
s(g1594
g2132
tp2890
I1
s(S'ferguson'
S'mybrotherskeeper'
tp2891
I2
s(g436
g2247
tp2892
I1
s(S'hesfucked'
S'karma'
tp2893
I1
s(S'justiceformikebrown'
S'policebrutality'
tp2894
I2
s(g1053
g975
tp2895
I1
s(g380
S'ferguson'
p2896
tp2897
I1
s(g2119
S'mikebrown'
p2898
tp2899
I1
s(g688
g344
tp2900
I1
s(g930
g1678
tp2901
I1
s(g515
g2118
tp2902
I1
s(g1383
S'mikebrown'
tp2903
I1
s(S'ajamstream'
S'ferguson'
tp2904
I1
s(S'darrenwilson'
p2905
g126
tp2906
I1
s(S'ferguson'
S'smdh'
tp2907
I1
s(S'johnle'
p2908
S'mediablackout'
p2909
tp2910
I1
s(S'ferguson'
S'wewantthetruth'
tp2911
I2
s(g194
g77
tp2912
I1
s(g266
g1908
tp2913
I2
s(g22
S'strongarmedrobbery'
p2914
tp2915
I1
s(g400
S'ferguson'
tp2916
I1
s(S'ferguson'
p2917
g2765
tp2918
I1
s(S'endhate'
S'ferguson'
tp2919
I1
s(g1020
g2575
tp2920
I9
s(S'ferguson'
p2921
g1874
tp2922
I1
s(g1686
g1991
tp2923
I1
s(g1625
g156
tp2924
I1
s(g2259
g802
tp2925
I1
s(S'ferguson'
g2706
tp2926
I1
s(g2044
g179
tp2927
I1
s(S'ferguson'
S'maddow'
p2928
tp2929
I2
s(S'ferguson'
p2930
g1627
tp2931
I1
s(g314
g77
tp2932
I1
s(S'ferguson'
g2040
tp2933
I1
s(g404
g806
tp2934
I2
s(g248
g2589
tp2935
I1
s(S'fergusonshooting'
S'iftheygunnedmedown'
tp2936
I2
s(g453
g1381
tp2937
I3
s(g697
g2206
tp2938
I1
s(g1217
g2687
tp2939
I2
s(g791
g1359
tp2940
I1
s(g988
g2324
tp2941
I3
s(g937
g23
tp2942
I1
s(S'ferguson'
S'kkk'
tp2943
I3
s(g2195
g383
tp2944
I1
s(g1418
g484
tp2945
I1
s(g2342
g45
tp2946
I2
s(g2864
g1666
tp2947
I1
s(g2426
S'mikebrown'
tp2948
I1
s(S'cuba'
p2949
g992
tp2950
I1
s(g2280
S'fergusonshooting'
p2951
tp2952
I2
s(g2173
g1095
tp2953
I1
s(g1247
g809
tp2954
I1
s(S'michaelbrown'
g2392
tp2955
I1
s(g667
g661
tp2956
I1
s(g1105
g1882
tp2957
I1
s(S'ferguson'
p2958
S'nhv'
p2959
tp2960
I1
s(g2877
S'michaelbrown'
p2961
tp2962
I1
s(S'gazaunderattack'
p2963
g2710
tp2964
I3
s(g693
g1890
tp2965
I1
s(S'coverup'
S'mikebrown'
tp2966
I1
s(S'ferguson'
S'whatdaell'
tp2967
I1
s(g304
g299
tp2968
I1
s(S'justice4mikebrown'
p2969
g1002
tp2970
I1
s(g1680
S'michaelbrownshooting'
tp2971
I1
s(g2574
g1021
tp2972
I8
s(S'ferguson'
S'nojusticenopeace'
tp2973
I6
s(g1044
g1989
tp2974
I1
s(S'citizenwitnessing'
p2975
g2817
tp2976
I1
s(S'ferguson'
S'mepolitics'
tp2977
I1
s(S'ferguson'
S'itsbiggerthanyou'
tp2978
I11
s(S'obama'
g2446
tp2979
I1
s(S'ferguson'
p2980
S'racists'
p2981
tp2982
I3
s(g1145
g30
tp2983
I1
s(g1037
g769
tp2984
I1
s(g2303
g214
tp2985
I1
s(g492
g350
tp2986
I4
s(g2155
g977
tp2987
I1
s(S'ferguson'
g1970
tp2988
I1
s(g344
g2026
tp2989
I1
s(g23
S'thug'
p2990
tp2991
I1
s(S'blacklives'
S'ferguson'
tp2992
I1
s(g2808
g1822
tp2993
I1
s(g2436
S'nyc'
tp2994
I2
s(g1700
g78
tp2995
I1
s(S'changemustcome'
S'mikebrown'
tp2996
I1
s(g982
g451
tp2997
I1
s(g364
g931
tp2998
I1
s(S'copsandtheklangohandinhand'
p2999
g2980
tp3000
I3
s(S'communitypolcing'
S'ferguson'
tp3001
I1
s(S'dukelacrosse'
p3002
g1362
tp3003
I1
s(g1924
S'privilege'
p3004
tp3005
I1
s(S'mikebrown'
S'uniteblue'
tp3006
I6
s(g718
g320
tp3007
I1
s(g1289
g1009
tp3008
I2
s(g597
S'israel'
p3009
tp3010
I1
s(g1731
S'cnn'
p3011
tp3012
I2
s(g1708
S'uniteblue'
tp3013
I11
s(g453
g2871
tp3014
I3
s(g1731
g2489
tp3015
I2
s(g265
g2621
tp3016
I2
s(S'ferguson'
g794
tp3017
I3
s(g1652
g2687
tp3018
I2
s(g277
g2199
tp3019
I1
s(g658
g2059
tp3020
I2
s(S'gaza'
S'solidarity'
tp3021
I3
s(g1477
S'douchebag'
p3022
tp3023
I1
s(S'mikebrown'
p3024
S'murder'
p3025
tp3026
I1
s(g2668
S'ferguson'
tp3027
I1
s(S'dontshoot'
p3028
g945
tp3029
I1
s(g41
S'obama'
p3030
tp3031
I1
s(S'career'
g2499
tp3032
I2
s(g2896
g625
tp3033
I1
s(S'ferguson'
S'ire14'
tp3034
I3
s(g1160
g2148
tp3035
I4
s(S'ferguson'
p3036
g2654
tp3037
I6
s(g2914
g2990
tp3038
I1
s(S'c'
g1065
tp3039
I1
s(g287
g1972
tp3040
I1
s(g193
g78
tp3041
I1
s(g2072
g462
tp3042
I1
s(g2504
S'handsupdontshoot'
tp3043
I1
s(g733
g2908
tp3044
I1
s(S'ferguson'
S'supd'
tp3045
I1
s(S'ferguson'
S'hypocrite'
tp3046
I1
s(S'ferguson'
S'isis'
p3047
tp3048
I5
s(g2672
S'ferguson'
tp3049
I5
s(g302
g2386
tp3050
I1
s(S'santafe'
p3051
g1481
tp3052
I2
s(g111
g1598
tp3053
I1
s(S'ferguson'
g1954
tp3054
I1
s(g402
g1279
tp3055
I1
s(S'ferguson'
S'fergusonlive'
tp3056
I1
s(g2235
g185
tp3057
I2
s(g2506
S'justice'
tp3058
I1
s(g277
g446
tp3059
I1
s(S'luisito2402'
S'nytimes'
tp3060
I1
s(S'804formikebrown'
p3061
S'ferguson'
p3062
tp3063
I1
s(S'nationalguard'
p3064
g253
tp3065
I1
s(g2482
g2214
tp3066
I3
s(g1441
g220
tp3067
I1
s(g1277
g554
tp3068
I2
s(S'ferguson'
S'pressfreedom'
tp3069
I4
s(g2587
S'freemanbosley'
p3070
tp3071
I2
s(g206
g1794
tp3072
I3
s(S'ferguson'
S'occupy'
p3073
tp3074
I1
s(g1021
g2575
tp3075
I6
s(g2398
g697
tp3076
I1
s(g1887
g971
tp3077
I3
s(g312
g1065
tp3078
I1
s(g2315
S'dontshoot'
tp3079
I1
s(S'boston'
p3080
g2295
tp3081
I6
s(S'ferguson'
g1698
tp3082
I3
s(g1225
S'music'
p3083
tp3084
I1
s(g2022
g148
tp3085
I1
s(S'ferguson'
S'taylorswift'
tp3086
I1
s(g872
S'mikebrown'
p3087
tp3088
I2
s(S'missouri'
S'usa'
tp3089
I1
s(g1374
g1058
tp3090
I1
s(S'tech'
p3091
S'thisisactivism'
p3092
tp3093
I1
s(S'darrenwison'
S'ferguson'
tp3094
I1
s(S'mikebrown'
g2606
tp3095
I1
s(S'gunfail'
S'nra'
tp3096
I1
s(S'dnow'
S'p2'
tp3097
I1
s(g2917
g839
tp3098
I1
s(S'ferguson'
p3099
g3092
tp3100
I1
s(g536
g1396
tp3101
I2
s(g354
g273
tp3102
I1
s(g354
g2961
tp3103
I1
s(g1172
g1922
tp3104
I1
s(g1968
g146
tp3105
I6
s(g2719
S'trayvonmartin'
tp3106
I2
s(S'ferguson'
S'sholedont'
p3107
tp3108
I1
s(S'factsonlyplease'
S'ferguson'
tp3109
I1
s(g10
S'vets'
p3110
tp3111
I1
s(S'ferguson'
p3112
g1303
tp3113
I1
s(g735
g1799
tp3114
I1
s(g530
g2657
tp3115
I4
s(g2006
g2417
tp3116
I1
s(S'ferguson'
S'newsflash'
tp3117
I2
s(g265
g1908
tp3118
I2
s(S'tcot'
p3119
g2879
tp3120
I5
s(S'ferguson'
p3121
S'istillbelievegod'
p3122
tp3123
I1
s(g2350
g1470
tp3124
I1
s(S'ferguson'
S'imsoconfused'
tp3125
I1
s(S'afroanonymous'
p3126
S'ferguson'
tp3127
I1
s(g1300
g1000
tp3128
I1
s(g531
g1142
tp3129
I2
s(g1314
g2467
tp3130
I1
s(g2477
S'mikebrown'
tp3131
I2
s(g2337
g1665
tp3132
I1
s(g2210
g865
tp3133
I1
s(g3080
g530
tp3134
I4
s(g302
g28
tp3135
I41
s(g905
g903
tp3136
I1
s(g1935
g299
tp3137
I1
s(S'c4news'
S'ferguson'
tp3138
I2
s(g876
S'policebrutality'
p3139
tp3140
I1
s(g298
g1119
tp3141
I1
s(S'dontshoot'
p3142
g71
tp3143
I2
s(g1408
g349
tp3144
I4
s(S'ferguson'
S'nixon'
tp3145
I4
s(S'lastwords'
g1149
tp3146
I2
s(S'fuckthepolice'
g1287
tp3147
I1
s(g2483
g2215
tp3148
I8
s(S'cerd'
S'ferguson'
tp3149
I1
s(S'ferguson'
S'thailand'
tp3150
I2
s(g1437
g1036
tp3151
I1
s(g2850
S'uniteblue'
tp3152
I1
s(g905
g200
tp3153
I1
s(S'ferguson'
S'yesallwomen'
tp3154
I1
s(S'ferguson'
S'martinniemxf6ller'
tp3155
I1
s(S'ferguson'
g333
tp3156
I2
s(g991
g2949
tp3157
I1
s(S'concluferguson'
p3158
g710
tp3159
I1
s(g487
S'mikebrown'
tp3160
I1
s(g699
S'handsupdontshoot'
p3161
tp3162
I2
s(S'ferguson'
g2630
tp3163
I3
s(S'bruh'
S'ferguson'
tp3164
I1
s(g266
g1009
tp3165
I2
s(S'ferguson'
g853
tp3166
I1
s(g958
g2386
tp3167
I1
s(g156
g1334
tp3168
I1
s(S'kentstate'
p3169
S'nationalguard'
p3170
tp3171
I1
s(S'justice'
S'media'
tp3172
I1
s(g373
g171
tp3173
I1
s(g317
g883
tp3174
I1
s(S'ferguson'
S'knockout'
tp3175
I1
s(g730
S'nervedjs'
p3176
tp3177
I1
s(g1772
g1068
tp3178
I1
s(g849
S'ukraine'
p3179
tp3180
I1
s(g2404
g52
tp3181
I1
s(g1453
g1327
tp3182
I1
s(g687
g2026
tp3183
I1
s(S'ferguson'
S'pr'
tp3184
I2
s(g105
g402
tp3185
I1
s(g2337
g1666
tp3186
I1
s(g360
g526
tp3187
I1
s(g498
S'michaelbrown'
tp3188
I1
s(g1579
g2574
tp3189
I18
s(g299
g305
tp3190
I1
s(g786
g664
tp3191
I1
s(S'brown'
S'darrenwilson'
tp3192
I1
s(g906
g201
tp3193
I1
s(g1719
g164
tp3194
I1
s(S'mikebrown'
g2635
tp3195
I3
s(S'libcrib'
S'tcot'
tp3196
I2
s(g1306
g121
tp3197
I1
s(g137
g2274
tp3198
I8
s(S'anationoflaws'
p3199
g2508
tp3200
I1
s(g2548
g2303
tp3201
I1
s(g620
g1794
tp3202
I3
s(S'app'
p3203
g3091
tp3204
I1
s(g2207
g1275
tp3205
I1
s(S'handsup'
g1860
tp3206
I1
s(g585
g735
tp3207
I1
s(S'mom'
g1018
tp3208
I1
s(g105
g132
tp3209
I1
s(g3073
S'occupyferguson'
p3210
tp3211
I1
s(S'ferguson'
p3212
g1649
tp3213
I1
s(S'ferguson'
S'princetonu'
tp3214
I1
s(S'darrenwilson'
S'prayforferguson'
p3215
tp3216
I1
s(g1439
S'justiceformikebrown'
p3217
tp3218
I1
s(S'ferguson'
g2790
tp3219
I13
s(S'ferguson'
S'makesnosense'
tp3220
I1
s(g248
g240
tp3221
I1
s(g133
g19
tp3222
I1
s(g951
g552
tp3223
I1
s(S'michaelbrown'
g969
tp3224
I1
s(g1913
S'usa'
p3225
tp3226
I1
s(g868
g816
tp3227
I1
s(g123
S'college'
tp3228
I1
s(S'dontshoot'
S'stlouis'
p3229
tp3230
I1
s(g1690
g2666
tp3231
I1
s(S'michaelbrown'
p3232
S'p2'
p3233
tp3234
I1
s(g2975
g2816
tp3235
I1
s(g846
S'ferguson'
tp3236
I1
s(S'ferguson'
S'fyi'
tp3237
I1
s(S'ferguson'
g1980
tp3238
I2
s(g2115
g197
tp3239
I1
s(g2337
g2864
tp3240
I1
s(g377
g3179
tp3241
I1
s(g1082
g903
tp3242
I1
s(g1316
g1282
tp3243
I1
s(S'handsupdontshoot'
g225
tp3244
I1
s(S'handsup'
S'iamawake'
tp3245
I1
s(S'famiilypretty'
S'makinahd'
tp3246
I1
s(S'cbc'
p3247
S'michaelbrown'
tp3248
I1
s(g1184
g953
tp3249
I1
s(g875
g3139
tp3250
I1
s(S'fergusonpolice'
S'michaelbrown'
tp3251
I5
s(g193
g1700
tp3252
I1
s(g591
g2058
tp3253
I4
s(g813
g1739
tp3254
I1
s(g1453
g1328
tp3255
I1
s(S'stl'
p3256
S'stlstrong'
p3257
tp3258
I1
s(g580
g1736
tp3259
I2
s(g1044
g31
tp3260
I1
s(S'ferguson'
g356
tp3261
I1
s(S'darrenwilson'
p3262
g158
tp3263
I156
s(g1838
g2145
tp3264
I5
s(S'darrenwilson'
S'justiceformikebrown'
tp3265
I4
s(g153
g1498
tp3266
I1
s(g1041
S'mikebrown'
tp3267
I1
s(S'ferguson'
S'iknowsbetter'
tp3268
I1
s(S'copskillkids'
S'ferguson'
tp3269
I1
s(g515
g2898
tp3270
I1
s(g1542
g589
tp3271
I1
s(g667
g849
tp3272
I1
s(g1039
S'mom'
tp3273
I1
s(S'boston'
p3274
g1731
tp3275
I2
s(g1139
g1090
tp3276
I2
s(S'ferguson'
p3277
g1575
tp3278
I8
s(g298
g305
tp3279
I1
s(g1480
g3051
tp3280
I2
s(S'ferguson'
S'fergusonpolice'
tp3281
I14
s(g485
g1587
tp3282
I1
s(g3169
S'mikebrown'
p3283
tp3284
I1
s(g319
g719
tp3285
I1
s(g890
g1848
tp3286
I1
s(g296
S'ferguson'
tp3287
I1
s(g2571
g2724
tp3288
I1
s(S'ferguson'
p3289
g743
tp3290
I1
s(g1413
g183
tp3291
I1
s(g132
g20
tp3292
I1
s(g2157
g1433
tp3293
I2
s(g3217
g705
tp3294
I2
s(g409
g2342
tp3295
I2
s(S'mikebrown'
g1125
tp3296
I1
s(g634
g305
tp3297
I1
s(g481
g1453
tp3298
I1
s(g9
g3110
tp3299
I1
s(g1935
g298
tp3300
I1
s(g1489
S'nmos14'
tp3301
I2
s(g2820
g2637
tp3302
I1
s(S'ferguson'
S'interesting'
tp3303
I1
s(g459
g1372
tp3304
I1
s(g2706
S'mikebrown'
p3305
tp3306
I1
s(S'ferguson'
S'revolution'
tp3307
I3
s(g1601
S'shootum'
p3308
tp3309
I1
s(S'japan'
p3310
S'tokyo'
p3311
tp3312
I1
s(g822
S'unitedwestand'
p3313
tp3314
I1
s(g3080
g2657
tp3315
I4
s(S'ferguson'
S'possecomitatus'
tp3316
I1
s(S'ferguson'
g1902
tp3317
I6
s(g2210
g864
tp3318
I1
s(g1941
g77
tp3319
I1
s(g375
S'tcot'
tp3320
I1
s(g464
g479
tp3321
I1
s(g801
g2260
tp3322
I2
s(S'animals'
S'ferguson'
tp3323
I1
s(g1643
S'ferguson'
p3324
tp3325
I1
s(g1708
S'libcrib'
tp3326
I7
s(g28
g2386
tp3327
I1
s(g2038
g1492
tp3328
I1
s(g2660
g1760
tp3329
I1
s(g1169
g1042
tp3330
I1
s(S'ferguson'
S'pdchief'
tp3331
I1
s(S'ferguson'
S'fergusun'
tp3332
I1
s(S'ferguson'
S'nhpolitics'
p3333
tp3334
I3
s(g378
g849
tp3335
I1
s(g750
S'mediablackout'
tp3336
I1
s(S'mikebrown'
p3337
g1370
tp3338
I1
s(g33
g51
tp3339
I1
s(g2828
g38
tp3340
I1
s(S'nationalguard'
g1610
tp3341
I2
s(g2591
g317
tp3342
I1
s(g660
g667
tp3343
I1
s(g697
g1274
tp3344
I1
s(g1523
g1359
tp3345
I1
s(g1606
S'nmos14'
p3346
tp3347
I2
s(S'feildtrade'
p3348
S'ferguson'
tp3349
I1
s(S'ferguson'
S'shottycoverup'
tp3350
I3
s(g449
g2879
tp3351
I5
s(g2482
g2215
tp3352
I1
s(g1053
g2157
tp3353
I1
s(g3022
g1478
tp3354
I1
s(g2058
S'tcot'
p3355
tp3356
I4
s(g2691
S'ferguson'
p3357
tp3358
I1
s(g1248
g1799
tp3359
I1
s(g2398
g1275
tp3360
I1
s(S'breaking'
g1825
tp3361
I3
s(g1537
S'mikebrown'
tp3362
I1
s(g855
g1134
tp3363
I1
s(g699
g1391
tp3364
I2
s(g247
g2589
tp3365
I1
s(g1298
g1892
tp3366
I3
s(S'crime'
p3367
S'murder'
p3368
tp3369
I1
s(S'dontshoot'
p3370
g1266
tp3371
I1
s(S'ferguson'
S'gaza'
tp3372
I50
s(g1325
g2879
tp3373
I5
s(g1627
g2735
tp3374
I1
s(g2724
g2203
tp3375
I1
s(g1627
g1513
tp3376
I1
s(S'handsup'
S'standwithferguson'
tp3377
I1
s(g2024
S'tcot'
tp3378
I1
s(g1993
g1799
tp3379
I1
s(S'cleveland'
g1255
tp3380
I1
s(S'ferguson'
p3381
g1486
tp3382
I3
s(g2431
S'teaparty'
tp3383
I2
s(g1222
S'ripmikebrown'
p3384
tp3385
I1
s(g189
S'iraq'
p3386
tp3387
I1
s(g301
g958
tp3388
I1
s(g3310
S'news'
p3389
tp3390
I1
s(g729
g3176
tp3391
I1
s(g22
g2990
tp3392
I1
s(g544
g2307
tp3393
I1
s(g2218
g1513
tp3394
I1
s(S'gaza'
S'palestine'
tp3395
I2
s(S'ferguson'
S'mine'
tp3396
I2
s(g2414
S'nmos14'
tp3397
I1
s(g1443
g2312
tp3398
I1
s(g1443
g1198
tp3399
I1
s(g2565
g2176
tp3400
I1
s(S'ferguson'
S'shooting'
p3401
tp3402
I1
s(g1555
g183
tp3403
I1
s(g954
g1185
tp3404
I1
s(g2838
S'ferguson'
tp3405
I1
s(S'mikebrown'
g2737
tp3406
I1
s(S'ferguson'
S'whereisdarrenwilson'
p3407
tp3408
I1
s(S'ferguson'
S'repost'
p3409
tp3410
I2
s(g2877
g354
tp3411
I1
s(g2461
g57
tp3412
I2
s(g829
S'ugh'
p3413
tp3414
I1
s(S'ferguson'
S'justthefacts'
tp3415
I1
s(S'army'
p3416
S'college'
tp3417
I1
s(g1569
g256
tp3418
I1
s(g3416
S'mikebrown'
tp3419
I1
s(g2571
g2203
tp3420
I4
s(S'ferguson'
S'thatawkwardmoment'
tp3421
I1
s(g549
g96
tp3422
I1
s(S'ferguson'
S'justice'
p3423
tp3424
I14
s(g1623
g2152
tp3425
I1
s(g2323
g988
tp3426
I3
s(g901
S'mikebrown'
p3427
tp3428
I1
s(S'ferguson'
g2135
tp3429
I2
s(g177
g472
tp3430
I1
s(g491
g350
tp3431
I4
s(S'dc'
p3432
S'ferguson'
tp3433
I5
s(g895
g434
tp3434
I1
s(S'news'
g2499
tp3435
I2
s(S'cnn'
p3436
g1449
tp3437
I1
s(g1279
g20
tp3438
I1
s(S'ferguson'
g707
tp3439
I1
s(g660
g377
tp3440
I1
s(g2400
S'mikebrown'
tp3441
I1
s(g1145
g1201
tp3442
I1
s(g123
S'mikebrown'
tp3443
I1
s(g1239
g1629
tp3444
I1
s(S'atlanta'
S'justiceformikebrown'
tp3445
I6
s(S'ferguson'
g2282
tp3446
I1
s(g572
g2389
tp3447
I1
s(g1647
g373
tp3448
I1
s(g1866
g1327
tp3449
I1
s(S'mikebrown'
S'nmos14'
tp3450
I16
s(S'ferguson'
S'thewholeworldiswatching'
tp3451
I4
s(S'ferguson'
g250
tp3452
I15
s(g1686
g2502
tp3453
I1
s(g1675
S'tcot'
p3454
tp3455
I1
s(g1104
g1882
tp3456
I1
s(g1281
g1316
tp3457
I1
s(g2745
g23
tp3458
I1
s(g74
g681
tp3459
I1
s(g1182
S'stl'
tp3460
I1
s(S'ferguson'
g1266
tp3461
I1
s(g1351
g1742
tp3462
I1
s(S'abbott'
S'ferguson'
tp3463
I1
s(g1601
g2402
tp3464
I1
s(g2058
g307
tp3465
I4
s(g986
g335
tp3466
I1
s(g304
g634
tp3467
I1
s(S'ferguson'
S'michaelbrown'
tp3468
I413
s(S'ferguson'
S'hmm'
tp3469
I1
s(g19
g148
tp3470
I1
s(S'amagi'
p3471
S'tlot'
tp3472
I1
s(g496
g1931
tp3473
I1
s(g2062
g883
tp3474
I1
s(S'ferguson'
S'fergusonpoliceradio'
tp3475
I1
s(g2243
g2493
tp3476
I8
s(g846
g2594
tp3477
I1
s(S'darrenwilson'
g629
tp3478
I1
s(S'ferguson'
S'inept'
tp3479
I1
s(g694
g4
tp3480
I1
s(g2483
g2214
tp3481
I11
s(g425
S'ferguson'
tp3482
I3
s(g380
g625
tp3483
I1
s(g364
g664
tp3484
I1
s(g3308
g2402
tp3485
I1
s(S'hacker'
S'infosec'
tp3486
I1
s(S'ferguson'
S'releasethetape'
p3487
tp3488
I1
s(S'ferguson'
S'whitesupremacists'
tp3489
I2
s(g697
g2207
tp3490
I1
s(S'ferguson'
g2185
tp3491
I2
s(g1662
g2440
tp3492
I1
s(g781
S'justiceformike'
p3493
tp3494
I2
s(g2858
g2677
tp3495
I1
s(g1686
g1662
tp3496
I1
s(g2095
S'sf'
p3497
tp3498
I1
s(g1416
g262
tp3499
I1
s(S'ferguson'
S'peace'
tp3500
I10
s(S'mikebrown'
S'unarmed'
p3501
tp3502
I1
s(g158
S'freegaza'
p3503
tp3504
I2
s(S'hu'
p3505
S'nmos14'
tp3506
I1
s(g1984
g945
tp3507
I1
s(S'ferguson'
S'neverforget'
tp3508
I1
s(g526
g361
tp3509
I1
s(S'ferguson'
S'newday'
tp3510
I1
s(g2155
g552
tp3511
I1
s(g98
g827
tp3512
I1
s(g2496
S'money'
p3513
tp3514
I1
s(S'mikebrown'
p3515
g3073
tp3516
I1
s(g544
S'dontshoot'
p3517
tp3518
I1
s(S'fightfor15'
S'handsup'
tp3519
I1
s(S'lordhavemercy'
p3520
S'michaelbrown'
tp3521
I1
s(g1298
g893
tp3522
I2
s(g1328
g482
tp3523
I1
s(S'news'
S'newyork'
tp3524
I2
s(S'ferguson'
g1175
tp3525
I1
s(g36
S'mikebrown'
tp3526
I1
s(S'gaza'
g2300
tp3527
I1
s(S'mikebrown'
g2694
tp3528
I57
s(g2598
g1845
tp3529
I1
s(S'ferguson'
S'morningjoe'
tp3530
I1
s(g365
g664
tp3531
I5
s(S'lastwords'
p3532
g1632
tp3533
I1
s(S'ferguson'
S'thelead'
tp3534
I3
s(g3028
g1984
tp3535
I1
s(S'handsupdontshoot'
p3536
S'ncat'
tp3537
I17
s(g1662
g316
tp3538
I1
s(g773
g727
tp3539
I1
s(S'breaking'
S'exoutsideagitators'
tp3540
I1
s(g2525
S'politicalprisoners'
p3541
tp3542
I1
s(g2047
g387
tp3543
I2
s(g1072
S'transparency'
p3544
tp3545
I1
s(g537
g1396
tp3546
I1
s(S'handsupdontshoot'
g2518
tp3547
I1
s(g1219
g1388
tp3548
I1
s(g768
g1037
tp3549
I1
s(g1700
g77
tp3550
I1
s(S'ferguson'
S'liar'
tp3551
I2
s(g1555
g1412
tp3552
I1
s(g2591
g1991
tp3553
I1
s(g1060
g281
tp3554
I1
s(g562
g1780
tp3555
I1
s(S'newyork'
g556
tp3556
I1
s(S'mom'
g1268
tp3557
I2
s(S'chemtrails'
p3558
S'tcot'
p3559
tp3560
I1
s(S'p2'
p3561
g3110
tp3562
I1
s(S'endracism'
S'ferguson'
tp3563
I1
s(g395
g816
tp3564
I1
s(S'dellwood'
S'ferguson'
tp3565
I1
s(g1524
g1359
tp3566
I1
s(S'discriminacixf3nracial'
S'ferguson'
tp3567
I1
s(g1935
g1120
tp3568
I1
s(g1993
g809
tp3569
I1
s(S'college'
g1268
tp3570
I2
s(S'fergusonpolice'
p3571
g3025
tp3572
I1
s(g34
g2404
tp3573
I1
s(S'civilrights'
S'ferguson'
tp3574
I2
s(g314
g193
tp3575
I2
s(g2767
g656
tp3576
I1
s(g2235
g683
tp3577
I2
s(g2586
g3070
tp3578
I2
s(g2072
g560
tp3579
I1
s(g1775
g6
tp3580
I2
s(g1574
g3277
tp3581
I39
s(g1989
g1145
tp3582
I1
s(S'ferguson'
S'shame'
tp3583
I5
s(S'ferguson'
S'opps'
tp3584
I3
s(g764
g505
tp3585
I1
s(g34
g407
tp3586
I1
s(S'michaelbrown'
g2382
tp3587
I2
s(S'ddhh'
p3588
g1285
tp3589
I1
s(g1569
g518
tp3590
I1
s(S'entertainment'
p3591
g2701
tp3592
I1
s(g2303
S'uniteblue'
p3593
tp3594
I1
s(g3262
g3503
tp3595
I1
s(g1959
g2469
tp3596
I2
s(S'michaelbrown'
g2268
tp3597
I1
s(S'1stamendment'
g3348
tp3598
I1
s(g2531
g230
tp3599
I1
s(S'musicevents'
S'theneeds'
tp3600
I1
s(S'gettyphotographer'
p3601
S'scottolson'
p3602
tp3603
I1
s(S'prayforferguson'
S'whiteshameday'
p3604
tp3605
I1
s(S'rap'
p3606
g675
tp3607
I1
s(g92
g1546
tp3608
I1
s(S'justiceformikebrown'
g3409
tp3609
I1
s(S'handsupdontshoot'
S'protest'
tp3610
I1
s(S'ferguson'
S'ogt'
tp3611
I1
s(g885
g2733
tp3612
I1
s(S'ferguson'
S'longwalk'
tp3613
I1
s(S'police'
p3614
g3384
tp3615
I1
s(S'feminist'
p3616
S'nmos14'
tp3617
I1
s(g622
g613
tp3618
I1
s(g687
g203
tp3619
I1
s(g255
g1307
tp3620
I1
s(S'alsharpnuts'
p3621
g1031
tp3622
I4
s(S'ferguson'
S'smearcampaign'
p3623
tp3624
I1
s(g105
g20
tp3625
I1
s(S'ferguson'
g969
tp3626
I1
s(g1338
S'ferguson'
tp3627
I1
s(S'ferguson'
g2351
tp3628
I1
s(g319
g923
tp3629
I1
s(g3247
S'ferguson'
tp3630
I1
s(S'afghanistan'
p3631
S'mikebrown'
tp3632
I1
s(g1120
g305
tp3633
I1
s(S'firstaid'
p3634
S'opferguson'
tp3635
I1
s(g1097
S'ferguson'
p3636
tp3637
I1
s(S'handsupdontshoot'
g1749
tp3638
I9
s(g956
g826
tp3639
I1
s(S'amsterdam'
S'news'
tp3640
I1
s(g660
g1379
tp3641
I1
s(g27
g2386
tp3642
I1
s(S'ferguson'
g3505
tp3643
I1
s(S'college'
g1092
tp3644
I1
s(S'fb'
S'ferguson'
tp3645
I2
s(g1962
g1463
tp3646
I1
s(g3588
g1284
tp3647
I1
s(S'dontshoot'
p3648
g125
tp3649
I1
s(S'ethnography'
S'fergusonriots'
tp3650
I1
s(g469
g335
tp3651
I1
s(g975
g1433
tp3652
I1
s(S'michaelbrown'
g2630
tp3653
I3
s(S'ferguson'
S'livefree'
tp3654
I2
s(S'ferguson'
S'noproblem'
tp3655
I1
s(S'michaelbrown'
g330
tp3656
I1
s(g1889
g694
tp3657
I1
s(g16
g358
tp3658
I2
s(g729
g2793
tp3659
I1
s(S'newsone'
g1975
tp3660
I5
s(S'breaking'
S'wftv'
tp3661
I1
s(S'civilrights'
p3662
g915
tp3663
I1
s(S'militarizationofpolice'
S'missouri'
tp3664
I1
s(S'gop'
g2850
tp3665
I1
s(g1300
g1058
tp3666
I1
s(g868
g963
tp3667
I1
s(g1379
g849
tp3668
I1
s(g2850
S'tcot'
tp3669
I1
s(S'policebrutality'
S'policethepolice'
p3670
tp3671
I1
s(g2696
g886
tp3672
I1
s(g2379
g2615
tp3673
I1
s(g2657
g531
tp3674
I4
s(S'anonymous'
g1087
tp3675
I1
s(S'ericgarner'
S'nmos14'
tp3676
I2
s(S'ferguson'
S'lookouthesgotagun'
tp3677
I2
s(g433
g895
tp3678
I1
s(g2398
g2207
tp3679
I1
s(g1082
g283
tp3680
I1
s(g2502
g2591
tp3681
I1
s(g1744
g971
tp3682
I1
s(g196
g2116
tp3683
I1
s(g2860
S'teargas'
p3684
tp3685
I1
s(S'ferguson'
S'thewire'
tp3686
I2
s(S'ferguson'
p3687
g2497
tp3688
I1
s(g577
S'opferguson'
tp3689
I2
s(g885
g3030
tp3690
I1
s(g2394
g1068
tp3691
I1
s(g956
g827
tp3692
I2
s(S'darrenwilson'
S'fergusoncopidentified'
p3693
tp3694
I2
s(g864
g1312
tp3695
I1
s(g1156
g197
tp3696
I1
s(g2253
g2779
tp3697
I1
s(S'iftheygunnedmedown'
p3698
g2112
tp3699
I1
s(g197
g2116
tp3700
I1
s(g732
g2908
tp3701
I1
s(g1987
S'mikebrown'
tp3702
I2
s(g663
g787
tp3703
I1
s(g2502
g317
tp3704
I1
s(g129
S'mikebrown'
tp3705
I2
s(g693
g1889
tp3706
I1
s(g1036
g769
tp3707
I1
s(g883
g2440
tp3708
I1
s(g1755
S'ferguson'
p3709
tp3710
I2
s(g939
g461
tp3711
I1
s(g1647
g1065
tp3712
I1
s(g476
g787
tp3713
I1
s(g3386
g190
tp3714
I1
s(S'blacklivesmatter'
S'michaelbrown'
tp3715
I1
s(g1223
g3614
tp3716
I1
s(g1756
g1880
tp3717
I1
s(S'acab'
p3718
g2740
tp3719
I1
s(S'handsupdontshoot'
S'peopleoverpolitics'
tp3720
I6
s(g412
g405
tp3721
I2
s(S'edequity'
S'ferguson'
tp3722
I1
s(S'facebook'
p3723
S'socialmedia'
tp3724
I1
s(S'p2'
S'tgdn'
tp3725
I1
s(S'btr'
p3726
g2765
tp3727
I1
s(g472
g681
tp3728
I1
s(S'c'
g312
tp3729
I1
s(g1944
g1658
tp3730
I1
s(g1307
g256
tp3731
I1
s(S'ferguson'
g2721
tp3732
I1
s(S'mikebrown'
S'staywoke'
tp3733
I1
s(g3513
g2497
tp3734
I1
s(g74
g451
tp3735
I1
s(g872
g2018
tp3736
I1
s(S'anonymous'
S'mikebrown'
tp3737
I11
s(S'michealbrown'
g1166
tp3738
I1
s(g746
g1941
tp3739
I1
s(g2366
g12
tp3740
I3
s(g2384
g1128
tp3741
I1
s(g1138
g1089
tp3742
I2
s(S'mikebrown'
S'racism'
tp3743
I1
s(g213
g2302
tp3744
I1
s(g2317
g1700
tp3745
I3
s(g204
g2026
tp3746
I1
s(S'mikebrown'
g3107
tp3747
I1
s(g2787
S'ferguson'
tp3748
I83
s(g545
g1816
tp3749
I2
s(g1152
g1024
tp3750
I1
s(g683
g185
tp3751
I2
s(g142
g2152
tp3752
I1
s(g1005
g1036
tp3753
I1
s(g2745
g2990
tp3754
I1
s(g696
g2206
tp3755
I1
s(g1549
g681
tp3756
I1
s(g290
S'obama'
p3757
tp3758
I1
s(S'ferguson'
g1607
tp3759
I2
s(g1089
g1461
tp3760
I2
s(S'college'
g1018
tp3761
I1
s(g600
g1372
tp3762
I9
s(S'ecore'
S'hacker'
tp3763
I1
s(g2323
g989
tp3764
I3
s(g537
g979
tp3765
I1
s(g156
g870
tp3766
I1
s(g23
g2914
tp3767
I1
s(g2342
g410
tp3768
I2
s(S'seo'
S'website'
tp3769
I1
s(S'handsupdontshoot'
p3770
g1095
tp3771
I1
s(g1005
g1437
tp3772
I1
s(g2260
g802
tp3773
I1
s(g1105
g818
tp3774
I1
s(g1991
g317
tp3775
I1
s(S'corrupt'
S'ferguson'
tp3776
I2
s(g3274
g1732
tp3777
I2
s(g2157
g975
tp3778
I1
s(g2809
g1823
tp3779
I1
s(g2589
g241
tp3780
I2
s(g908
S'eeuu'
p3781
tp3782
I2
s(g166
g1931
tp3783
I1
s(g283
g906
tp3784
I1
s(S'breakingnews'
S'mikebrown'
tp3785
I3
s(g3503
S'mikebrown'
p3786
tp3787
I1
s(S'ferguson'
S'gazachildren'
tp3788
I1
s(g1591
g873
tp3789
I1
s(S'ferguson'
S'neveragain'
tp3790
I1
s(g1385
g604
tp3791
I16
s(S'baltimore'
S'ferguson'
tp3792
I1
s(g107
g2378
tp3793
I1
s(g1306
g255
tp3794
I1
s(g2747
g2579
tp3795
I1
s(g2449
S'ferguson'
tp3796
I1
s(S'ferguson'
S'murica'
tp3797
I9
s(g3432
S'justiceformikebrown'
tp3798
I1
s(S'ferguson'
S'operationhelporhush'
tp3799
I2
s(g1443
g672
tp3800
I1
s(g1089
g1139
tp3801
I2
s(g1180
g2018
tp3802
I2
s(S'ferguson'
S'scottolsen'
tp3803
I1
s(g2366
g13
tp3804
I3
s(S'ferguson'
S'nmos14'
tp3805
I62
s(S'mikebrown'
S'trayvon'
tp3806
I2
s(S'opferguson'
p3807
g1513
tp3808
I1
s(S'americaunderattack'
S'ferguson'
tp3809
I1
s(S'ferguson'
S'science'
tp3810
I1
s(g1838
g2866
tp3811
I5
s(g1662
g2591
tp3812
I1
s(g2793
g3176
tp3813
I1
s(S'ferguson'
g2140
tp3814
I1
s(S'ferguson'
g1344
tp3815
I1
s(g1060
g280
tp3816
I1
s(g3262
g159
tp3817
I1
s(g585
g636
tp3818
I1
s(S'justiceformikebrown'
g2228
tp3819
I1
s(g107
g2379
tp3820
I1
s(g3158
g709
tp3821
I1
s(S'mikebrown'
g1018
tp3822
I1
s(g1919
S'mikebrown'
tp3823
I1
s(g1359
g792
tp3824
I1
s(g991
S'ferguson'
tp3825
I1
s(S'ferguson'
S'jjgo'
tp3826
I1
s(g688
g2026
tp3827
I1
s(g1429
g2357
tp3828
I1
s(g3770
g1813
tp3829
I8
s(g639
g1374
tp3830
I1
s(g827
g99
tp3831
I1
s(g2412
g3142
tp3832
I4
s(g336
g1682
tp3833
I1
s(g2075
S'stl'
tp3834
I3
s(S'peace'
p3835
g3257
tp3836
I1
s(g651
g167
tp3837
I1
s(g1193
g1639
tp3838
I1
s(S'ferguson'
S'notallcops'
tp3839
I1
s(g273
g2961
tp3840
I1
s(S'ferguson'
g2150
tp3841
I1
s(g3636
g1098
tp3842
I3
s(g604
g1386
tp3843
I1
s(S'justiceformikebrown'
p3844
g2409
tp3845
I1
s(g1306
g120
tp3846
I1
s(S'ferguson'
g500
tp3847
I3
s(S'ferguson'
g3604
tp3848
I1
s(S'mikebrown'
g3623
tp3849
I1
s(g999
g638
tp3850
I1
s(g813
g2969
tp3851
I1
s(g185
g1261
tp3852
I2
s(g437
g2248
tp3853
I1
s(g2739
S'ferguson'
tp3854
I1
s(g3333
S'uniteblue'
tp3855
I3
s(g694
g1890
tp3856
I1
s(S'ferguson'
S'fuckinmaury'
tp3857
I1
s(g1333
g155
tp3858
I1
s(g421
S'liars'
p3859
tp3860
I1
s(g3471
S'tcot'
tp3861
I1
s(g585
g1799
tp3862
I1
s(g2806
g49
tp3863
I1
s(g636
g1248
tp3864
I1
s(g3436
g2627
tp3865
I1
s(S'bahrainstyle'
S'ferguson'
tp3866
I1
s(S'autopsy'
S'darrenwilson'
tp3867
I1
s(g276
g1234
tp3868
I1
s(S'ferguson'
S'fox25'
tp3869
I2
s(g2502
g2440
tp3870
I1
s(g213
g3593
tp3871
I1
s(g3112
g1302
tp3872
I1
s(g3121
S'justicestill'
p3873
tp3874
I1
s(g696
g1274
tp3875
I1
s(g41
g2696
tp3876
I3
s(g1917
g1024
tp3877
I2
s(g433
g896
tp3878
I1
s(g824
g2247
tp3879
I1
s(g13
g1794
tp3880
I3
s(g3142
g72
tp3881
I3
s(S'ferguson'
S'shtfjournal'
tp3882
I1
s(g1678
g786
tp3883
I1
s(g138
g2274
tp3884
I11
s(g316
g2440
tp3885
I1
s(S'ferguson'
g1369
tp3886
I2
s(g1138
g1090
tp3887
I2
s(g2709
S'gaza'
p3888
tp3889
I1
s(g3199
g2509
tp3890
I1
s(g1157
g2116
tp3891
I1
s(g2670
g1732
tp3892
I2
s(g609
g2568
tp3893
I1
s(g2601
g1079
tp3894
I4
s(g416
S'standup'
p3895
tp3896
I1
s(S'benjamincrump'
p3897
g2841
tp3898
I1
s(g3454
g1676
tp3899
I1
s(g314
g1700
tp3900
I1
s(g2336
g1666
tp3901
I1
s(g1053
g974
tp3902
I1
s(g186
g1261
tp3903
I2
s(S'c'
g372
tp3904
I1
s(g3386
g1780
tp3905
I1
s(S'ferguson'
S'internet'
tp3906
I1
s(g206
g12
tp3907
I3
s(S'ferguson'
S'lulz'
tp3908
I2
s(g1141
g530
tp3909
I4
s(g2811
g1502
tp3910
I1
s(g150
S'uniteblue'
tp3911
I1
s(g1272
g2737
tp3912
I1
s(g1662
g1196
tp3913
I1
s(g2709
g2963
tp3914
I1
s(S'michaelbrown'
S'stl'
tp3915
I25
s(S'ericholder'
p3916
S'mikebrown'
tp3917
I2
s(g203
g2026
tp3918
I1
s(g402
g20
tp3919
I1
s(S'stoprush'
S'teaparty'
tp3920
I1
s(g1248
g586
tp3921
I1
s(S'ferguson'
g669
tp3922
I1
s(g400
S'mikebrown'
tp3923
I1
s(S'ferguson'
S'freeolson'
tp3924
I1
s(S'ferguson'
p3925
g3601
tp3926
I1
s(g660
g849
tp3927
I1
s(g1281
g1317
tp3928
I1
s(S'ferguson'
S'kxly'
tp3929
I1
s(S'israel'
S'palestine'
tp3930
I6
s(g291
g3757
tp3931
I2
s(g2591
g2062
tp3932
I1
s(S'blackonblack'
S'ferguson'
tp3933
I1
s(g138
g250
tp3934
I14
s(g1542
g588
tp3935
I1
s(g324
S'ripmikebrown'
tp3936
I1
s(g597
S'ferguson'
tp3937
I1
s(g3389
g3311
tp3938
I1
s(g364
g786
tp3939
I1
s(S'dontshoot'
S'marchformikebrown'
tp3940
I1
s(g276
g445
tp3941
I1
s(g2527
g569
tp3942
I1
s(g2404
g407
tp3943
I1
s(S'johncrawford'
g3487
tp3944
I1
s(g2339
g3897
tp3945
I1
s(g213
g2548
tp3946
I1
s(g1055
g813
tp3947
I1
s(S'ferguson'
S'sschat'
tp3948
I1
s(g1752
g2166
tp3949
I1
s(g1325
g3119
tp3950
I5
s(g746
g78
tp3951
I1
s(S'ferguson'
S'nato'
tp3952
I1
s(g1420
g653
tp3953
I1
s(g737
g83
tp3954
I2
s(g2905
g3648
tp3955
I1
s(S'ferguson'
S'republicans'
tp3956
I1
s(g115
g627
tp3957
I1
s(g982
g1456
tp3958
I1
s(S'dontshoot'
g644
tp3959
I5
s(g2811
g948
tp3960
I1
s(S'ferguson'
S'gazaunderattack'
p3961
tp3962
I12
s(g316
g1196
tp3963
I1
s(g1625
g870
tp3964
I1
s(g2106
S'rip'
p3965
tp3966
I1
s(g2315
S'ferguson'
tp3967
I1
s(g537
g980
tp3968
I1
s(S'ferguson'
S'priorities'
tp3969
I1
s(S'ferguson'
g1789
tp3970
I1
s(S'college'
g1230
tp3971
I1
s(g1854
g2371
tp3972
I1
s(g941
g2521
tp3973
I2
s(S'racism'
g898
tp3974
I1
s(g1210
g1009
tp3975
I2
s(g1930
g167
tp3976
I1
s(g213
g2303
tp3977
I1
s(g1925
g3004
tp3978
I1
s(g1437
g769
tp3979
I1
s(S'teaparty'
g1996
tp3980
I1
s(g3061
g111
tp3981
I1
s(g1000
g639
tp3982
I1
s(S'11alive'
S'ferguson'
tp3983
I5
s(g3726
g838
tp3984
I1
s(S'justice'
p3985
g3257
tp3986
I1
s(S'ivanberroa'
S'losdelsonido'
tp3987
I2
s(g712
S'michaelbrown'
tp3988
I10
s(g830
g3413
tp3989
I1
s(g2691
S'economy'
p3990
tp3991
I1
s(g1201
g31
tp3992
I2
s(g2077
g632
tp3993
I2
s(g3203
g3092
tp3994
I1
s(g57
g554
tp3995
I2
s(S'justwondering'
p3996
S'missouri'
tp3997
I1
s(S'ferguson'
p3998
g1328
tp3999
I1
s(S'justice4mikebrown'
S'missouri'
tp4000
I1
s(g68
g1147
tp4001
I1
s(g3337
g1369
tp4002
I1
s(g2223
g934
tp4003
I1
s(g1908
g1210
tp4004
I8
s(S'ferguson'
S'militarization'
tp4005
I1
s(g1523
g791
tp4006
I1
s(g661
g3179
tp4007
I1
s(S'ferguson'
S'idwp'
tp4008
I1
s(g1686
g883
tp4009
I1
s(g232
g3544
tp4010
I1
s(g766
g3009
tp4011
I1
s(g1602
g3308
tp4012
I1
s(S'darrenwilson'
S'zimmerman'
p4013
tp4014
I1
s(S'ferguson'
S'poilce'
tp4015
I1
s(S'lesm'
S'police'
tp4016
I1
s(g108
g2379
tp4017
I1
s(g1453
g3998
tp4018
I1
s(g1104
g818
tp4019
I1
s(S'boston'
p4020
S'nmos14'
p4021
tp4022
I1
s(g937
g2914
tp4023
I1
s(g923
g505
tp4024
I1
s(S'ferguson'
S'pdx'
tp4025
I1
s(S'michaelbrown'
S'pressfreedom'
p4026
tp4027
I1
s(S'college'
p4028
g1854
tp4029
I1
s(g200
g903
tp4030
I1
s(S'ferguson'
g2709
tp4031
I1
s(g2591
g883
tp4032
I1
s(S'ferguson'
g2128
tp4033
I4
s(g3835
g3256
tp4034
I1
s(g1623
g513
tp4035
I1
s(S'atlrally'
p4036
S'ferguson'
tp4037
I1
s(g1330
S'news'
p4038
tp4039
I1
s(g1625
g155
tp4040
I1
s(g3161
g1391
tp4041
I2
s(g1082
g906
tp4042
I1
s(S'ferguson'
S'fywnyt'
tp4043
I1
s(g2107
g3965
tp4044
I1
s(g3616
S'mikebrown'
tp4045
I1
s(g1662
g2062
tp4046
I1
s(g1364
g853
tp4047
I1
s(S'citizenjournalist'
S'ferguson'
tp4048
I1
s(S'ferguson'
S'home'
tp4049
I1
s(g2247
g437
tp4050
I1
s(g1300
g639
tp4051
I5
s(S'ferguson'
g1367
tp4052
I1
s(g660
g378
tp4053
I1
s(g1437
g1037
tp4054
I1
s(S'ferguson'
g1660
tp4055
I5
s(g816
g964
tp4056
I1
s(g2231
g3559
tp4057
I1
s(g1512
g2218
tp4058
I1
s(g2999
g2981
tp4059
I3
s(g733
g2909
tp4060
I1
s(g911
g322
tp4061
I1
s(S'mikebrown'
g1655
tp4062
I2
s(S'chicago'
S'ferguson'
tp4063
I4
s(S'blacklivesmatter'
p4064
g4021
tp4065
I3
s(S'mom'
g984
tp4066
I1
s(S'caution'
S'ferguson'
tp4067
I1
s(g1196
g2440
tp4068
I1
s(g1897
S'fergusontapes'
tp4069
I1
s(g469
g1682
tp4070
I1
s(g27
g958
tp4071
I1
s(S'ferguson'
S'staywoke'
tp4072
I2
s(g299
g1120
tp4073
I1
s(S'angellove'
p4074
S'ferguson'
p4075
tp4076
I1
s(g2398
g1274
tp4077
I1
s(g889
g1828
tp4078
I5
s(g304
g1120
tp4079
I1
s(g3047
S'police'
tp4080
I1
s(g1223
g3384
tp4081
I1
s(g586
g809
tp4082
I1
s(S'ezellford'
p4083
g2419
tp4084
I2
s(g193
g746
tp4085
I2
s(g1055
g1739
tp4086
I1
s(S'ferguson'
g3520
tp4087
I1
s(g1789
S'mom'
tp4088
I1
s(S'ferguson'
S'theblacklist'
tp4089
I1
s(g2047
g386
tp4090
I2
s(S'gaza'
S'iraq'
tp4091
I2
s(g301
g27
tp4092
I1
s(g1507
g216
tp4093
I5
s(g2386
g60
tp4094
I1
s(g34
g52
tp4095
I1
s(g1044
g30
tp4096
I1
s(g796
g336
tp4097
I1
s(g1579
g1021
tp4098
I3
s(g3781
g909
tp4099
I6
s(g1822
g2888
tp4100
I1
s(S'ferguson'
S'fuckthepolice'
tp4101
I5
s(S'ferguson'
S'theydidthistothemselves'
tp4102
I1
s(S'ferguson'
S'michealbrown'
tp4103
I7
s(g203
g344
tp4104
I1
s(g982
g681
tp4105
I1
s(S'ferguson'
S'fergusononfireusa'
tp4106
I1
s(g177
g982
tp4107
I1
s(g3916
S'tcot'
tp4108
I1
s(g252
g3064
tp4109
I1
s(g1913
S'ferguson'
tp4110
I1
s(g2006
g927
tp4111
I1
s(g3616
S'ferguson'
tp4112
I1
s(S'ferguson'
g3501
tp4113
I2
s(g233
g3544
tp4114
I1
s(S'darrenwilson'
S'justice'
tp4115
I1
s(S'news'
p4116
S'paris'
p4117
tp4118
I1
s(g2062
g2440
tp4119
I1
s(g802
g1473
tp4120
I1
s(g1200
g1045
tp4121
I1
s(g3083
g1226
tp4122
I1
s(g2406
g383
tp4123
I2
s(S'ferguson'
S'opferguson'
tp4124
I51
s(g1331
g2759
tp4125
I1
s(S'obama'
S'police'
tp4126
I1
s(g2781
g895
tp4127
I1
s(S'tcot'
S'wiunion'
tp4128
I1
s(g1180
g1692
tp4129
I1
s(g3859
g422
tp4130
I1
s(S'fergusonshooting'
g2737
tp4131
I1
s(g4036
S'mikebrown'
tp4132
I1
s(g999
g1058
tp4133
I1
s(g2502
g316
tp4134
I1
s(g873
g2018
tp4135
I1
s(g123
S'ferguson'
tp4136
I1
s(g317
g1196
tp4137
I1
s(S'australia'
g2428
tp4138
I1
s(g2271
S'ferguson'
tp4139
I1
s(g390
g1120
tp4140
I1
s(g28
g958
tp4141
I2
s(g2877
g273
tp4142
I1
s(g2841
g2340
tp4143
I1
s(g660
g2712
tp4144
I1
s(S'ferguson'
S'policechief'
p4145
tp4146
I2
s(g1147
g69
tp4147
I1
s(g449
g3119
tp4148
I5
s(g133
g20
tp4149
I1
s(g2496
g3687
tp4150
I1
s(g2781
g434
tp4151
I1
s(g1441
S'fergusonshooting'
p4152
tp4153
I1
s(g372
g312
tp4154
I1
s(g3011
g1732
tp4155
I2
s(g298
g1120
tp4156
I1
s(g1334
g1154
tp4157
I1
s(g2806
g48
tp4158
I1
s(S'anonymous'
g879
tp4159
I2
s(g3515
g3210
tp4160
I1
s(g718
g505
tp4161
I1
s(S'ferguson'
g3257
tp4162
I1
s(g82
g161
tp4163
I2
s(g937
g2990
tp4164
I1
s(S'gaza'
g3961
tp4165
I5
s(g2515
S'strong'
p4166
tp4167
I3
s(S'teaparty'
S'uniteblue'
tp4168
I4
s(S'breaking'
p4169
g1612
tp4170
I1
s(g2623
g1957
tp4171
I1
s(S'befree'
S'ferguson'
tp4172
I5
s(g1082
g201
tp4173
I1
s(g1200
g30
tp4174
I1
s(g3324
S'jp86'
p4175
tp4176
I1
s(g1180
g1591
tp4177
I1
s(g660
g3179
tp4178
I1
s(g1822
g2809
tp4179
I1
s(S'itsbiggerthanyou'
S'mikebrown'
tp4180
I2
s(g3283
g3170
tp4181
I2
s(S'naacp'
S'naacpyc'
p4182
tp4183
I1
s(g3571
g3024
tp4184
I2
s(g1000
g1374
tp4185
I1
s(S'france'
p4186
g4116
tp4187
I1
s(g1963
g1464
tp4188
I1
s(g1889
g4
tp4189
I1
s(g1379
g667
tp4190
I1
s(g3232
g3401
tp4191
I1
s(S'ferguson'
g1770
tp4192
I15
s(g132
g148
tp4193
I1
s(S'mediabias'
S'tcot'
tp4194
I2
s(g428
S'ferguson'
tp4195
I1
s(g1766
g2875
tp4196
I1
s(g1882
g819
tp4197
I1
s(S'ferguson'
S'peacefulprotest'
tp4198
I1
s(g280
g2682
tp4199
I1
s(S'ferguson'
S'whokilledmikebrown'
tp4200
I2
s(g703
g2056
tp4201
I1
s(S'handsupdontshoot'
S'struggleofbeingablackman'
tp4202
I1
s(S'ferguson'
p4203
g1316
tp4204
I1
s(g280
g1061
tp4205
I1
s(g2928
S'p2'
tp4206
I1
s(g2745
g2914
tp4207
I1
s(g836
g45
tp4208
I3
s(g1132
g1585
tp4209
I1
s(S'aggregation'
p4210
g1620
tp4211
I1
s(g2502
g1991
tp4212
I1
s(S'dontshoot'
p4213
g726
tp4214
I1
s(g1247
g636
tp4215
I1
s(g1296
S'nojusticenopeace'
tp4216
I2
s(S'elitedaily'
S'ferguson'
tp4217
I1
s(S'michaelbrown'
S'policestate'
tp4218
I15
s(g930
g365
tp4219
I1
s(g1323
g500
tp4220
I1
s(S'ferguson'
g80
tp4221
I1
s(S'ferguson'
S'indictdarrenwilson'
tp4222
I1
s(g45
g410
tp4223
I3
s(S'ferguson'
g3313
tp4224
I2
s(g1853
g2371
tp4225
I1
s(g3558
g2230
tp4226
I1
s(g1692
g2018
tp4227
I1
s(g2218
g2735
tp4228
I1
s(g1935
g634
tp4229
I1
s(g3807
g1627
tp4230
I1
s(S'demilitarizethenationalguard'
p4231
g1219
tp4232
I1
s(S'authentic'
S'ferguson'
tp4233
I1
s(S'jhonsonfresz'
S'losdelsonido'
tp4234
I3
s(g1190
g613
tp4235
I1
s(g190
g1780
tp4236
I1
s(g1991
g883
tp4237
I1
s(S'ferguson'
g3693
tp4238
I2
s(g838
g2765
tp4239
I1
s(g581
g1736
tp4240
I2
s(g900
g3427
tp4241
I1
s(g3212
g1208
tp4242
I1
s(g105
g1279
tp4243
I1
s(g4203
g1282
tp4244
I1
s(g674
g3606
tp4245
I1
s(g302
g60
tp4246
I1
s(g3916
S'ferguson'
tp4247
I4
s(g616
g1048
tp4248
I1
s(S'pjnet'
S'tlot'
p4249
tp4250
I2
s(g1234
g446
tp4251
I1
s(g1468
g511
tp4252
I1
s(g1678
g476
tp4253
I1
s(S'ferguson'
S'stayinformed'
tp4254
I1
s(S'fergusonriot'
S'mikebrown'
tp4255
I2
s(g2921
g1873
tp4256
I1
s(g253
g2040
tp4257
I1
s(g612
g623
tp4258
I1
s(S'ferguson'
S'scotus'
tp4259
I1
s(S'ferguson'
S'weneedthatverdict'
tp4260
I1
s(g170
g1065
tp4261
I1
s(g1259
g1922
tp4262
I1
s(g612
g1190
tp4263
I1
s(g454
g762
tp4264
I2
s(g1164
S'mikebrown'
tp4265
I2
s(g3925
g3602
tp4266
I1
s(g120
g256
tp4267
I1
s(S'ferguson'
g2518
tp4268
I1
s(S'ferguson'
S'freehedy'
tp4269
I2
s(S'mikebrown'
g3215
tp4270
I1
s(g1190
g623
tp4271
I1
s(g3631
S'ferguson'
tp4272
I1
s(g214
g3593
tp4273
I1
s(S'nh'
S'ultimas'
tp4274
I1
s(g417
g3895
tp4275
I1
s(S'partest'
p4276
g1027
tp4277
I1
s(g1567
g1294
tp4278
I1
s(g86
g2327
tp4279
I1
s(S'michaelbrown'
g3257
tp4280
I1
s(g390
g1119
tp4281
I1
s(g2516
g4166
tp4282
I3
s(g301
g2386
tp4283
I1
s(S'andeverythingelse'
S'ferguson'
tp4284
I2
s(g159
g3786
tp4285
I3
s(g1631
S'michealbrown'
p4286
tp4287
I1
s(g3370
g1265
tp4288
I2
s(S'ferguson'
S'infographic'
tp4289
I5
s(S'opferguson'
S'peaceinferguson'
tp4290
I1
s(g1253
g737
tp4291
I2
s(g2809
g2888
tp4292
I1
s(g4026
S'usa'
tp4293
I1
s(g536
g979
tp4294
I1
s(S'ferguson'
g4166
tp4295
I3
s(g1430
g2357
tp4296
I1
s(g1216
g1652
tp4297
I2
s(g2103
S'martiallaw'
p4298
tp4299
I1
s(g3888
g2710
tp4300
I3
s(g1631
g3532
tp4301
I1
s(g396
g964
tp4302
I1
s(g989
g2324
tp4303
I3
s(S'ferguson'
S'ontoday'
tp4304
I1
s(g1034
S'mom'
tp4305
I1
s(g3718
g2739
tp4306
I1
s(g2096
g3497
tp4307
I1
s(g2561
g1367
tp4308
I1
s(g3723
S'ferguson'
tp4309
I1
s(g658
g3355
tp4310
I2
s(g663
g930
tp4311
I1
s(S'ferguson'
p4312
g1535
tp4313
I1
s(g372
g171
tp4314
I1
s(g1686
g2591
tp4315
I1
s(g671
g2312
tp4316
I1
s(g1141
g2657
tp4317
I4
s(g841
S'mikebrown'
tp4318
I1
s(g930
g476
tp4319
I1
s(g2591
g2440
tp4320
I1
s(g1145
g1451
tp4321
I1
s(g121
g518
tp4322
I1
s(g1647
g171
tp4323
I1
s(g1799
g809
tp4324
I1
s(g1403
g1804
tp4325
I1
s(g1989
g1200
tp4326
I1
s(g459
g601
tp4327
I1
s(g3022
g1843
tp4328
I1
s(g1317
g1282
tp4329
I1
s(g370
g1744
tp4330
I9
s(g4169
g625
tp4331
I1
s(g1483
g1408
tp4332
I4
s(g2092
g1676
tp4333
I1
s(S'ferguson'
g2192
tp4334
I7
s(g2062
g317
tp4335
I1
s(g2808
g2888
tp4336
I1
s(g872
g1692
tp4337
I1
s(g301
g28
tp4338
I1
s(g1941
g194
tp4339
I1
s(g2263
g1502
tp4340
I1
s(S'justice'
S'ripmikebrown'
tp4341
I1
s(S'ferguson'
g3536
tp4342
I83
s(g27
g966
tp4343
I1
s(g1156
g2115
tp4344
I1
s(g503
g2775
tp4345
I1
s(g3588
S'ferguson'
tp4346
I1
s(g2461
g58
tp4347
I2
s(g65
g204
tp4348
I1
s(g41
g885
tp4349
I1
s(g2289
g1561
tp4350
I1
s(g3662
g914
tp4351
I1
s(g1117
g2239
tp4352
I1
s(g687
g204
tp4353
I1
s(g1412
g183
tp4354
I1
s(S'c'
g171
tp4355
I1
s(S'ferguson'
g1084
tp4356
I1
s(g1749
S'mikebrown'
tp4357
I9
s(S'ferguson'
g813
tp4358
I1
s(g404
g413
tp4359
I2
s(S'mikebrown'
g4013
tp4360
I1
s(g1162
S'handsupdontshoot'
tp4361
I1
s(g1222
g3614
tp4362
I1
s(g1274
g2207
tp4363
I1
s(g947
g1502
tp4364
I1
s(g3080
g531
tp4365
I4
s(g585
g809
tp4366
I1
s(g2317
g78
tp4367
I2
s(g2652
S'tcot'
tp4368
I9
s(S'dontshoot'
S'fergusonshooting'
tp4369
I1
s(g319
g764
tp4370
I1
s(S'handsupdontshoot'
g739
tp4371
I3
s(g1700
g1941
tp4372
I1
s(g4231
g1713
tp4373
I1
s(g1643
g4175
tp4374
I1
s(S'mikebrown'
g3407
tp4375
I1
s(S'ferguson'
S'sobeautiful'
tp4376
I1
s(g4152
g219
tp4377
I2
s(g752
S'tcot'
tp4378
I1
s(S'ferguson'
S'wow'
tp4379
I1
s(g4231
g1220
tp4380
I1
s(g1739
g2969
tp4381
I1
s(g1910
S'darrenwilson'
tp4382
I1
s(S'ferguson'
S'spirituality'
tp4383
I1
s(g2424
g1504
tp4384
I1
s(S'ferguson'
S'nottheonion'
tp4385
I1
s(S'ferguson'
g994
tp4386
I1
s(S'ferguson'
g419
tp4387
I2
s(S'fergusonpolice'
S'justiceformikebrown'
tp4388
I3
s(g4064
g4020
tp4389
I1
s(g3709
g1880
tp4390
I1
s(g1420
g2327
tp4391
I1
s(g1306
g518
tp4392
I1
s(S'mikebrown'
S'newsonenow'
tp4393
I8
s(g121
g1307
tp4394
I1
s(S'ferguson'
S'happeningnow'
tp4395
I1
s(g44
g2342
tp4396
I2
s(g10
g3561
tp4397
I1
s(S'blacktwitter'
S'ferguson'
tp4398
I6
s(S'american'
S'ferguson'
tp4399
I1
s(S'kkk'
S'police'
tp4400
I1
s(g200
g906
tp4401
I1
s(g462
g560
tp4402
I1
s(S'mom'
g1092
tp4403
I1
s(g52
g407
tp4404
I1
s(g377
g2712
tp4405
I1
s(g446
g2199
tp4406
I1
s(g86
g653
tp4407
I1
s(g939
g560
tp4408
I1
s(S'ferguson'
g3670
tp4409
I1
s(S'breakingnews'
S'ferguson'
tp4410
I5
s(S'ferguson'
p4411
g1214
tp4412
I1
s(S'handsupdontshoot'
S'pantsupdontloot'
tp4413
I1
s(S'ezellford'
g2068
tp4414
I2
s(g1426
g2552
tp4415
I1
s(S'mikebrown'
S'us'
tp4416
I3
s(g1836
g1475
tp4417
I4
s(g3770
g2173
tp4418
I1
s(S'daniel_zabala02'
S'sunoviaaquxed'
tp4419
I1
s(g44
g409
tp4420
I2
s(S'ferguson'
g494
tp4421
I11
s(g595
g358
tp4422
I2
s(g1569
g120
tp4423
I1
s(g2781
g433
tp4424
I1
s(g1962
g1464
tp4425
I1
s(g4231
g1388
tp4426
I1
s(g1686
g317
tp4427
I1
s(g4213
g727
tp4428
I1
s(g3346
g1607
tp4429
I2
s(g3036
g2655
tp4430
I1
s(g285
S'ferguson'
tp4431
I1
s(S'angelchallenge'
p4432
g4074
tp4433
I1
s(g3367
S'ferguson'
p4434
tp4435
I1
s(S'justiceformikebrown'
g4145
tp4436
I1
s(g4152
g220
tp4437
I1
s(g2302
g214
tp4438
I1
s(g3503
g159
tp4439
I1
s(g3203
g3099
tp4440
I1
s(S'michaelbrown'
S'robbery'
tp4441
I1
s(g1935
g1119
tp4442
I1
s(S'handsupdontshoot'
S'hoodiesupmusicloud'
tp4443
I3
s(S'ferguson'
g4182
tp4444
I1
s(g2036
S'mikebrown'
tp4445
I1
s(g687
g344
tp4446
I1
s(S'palestine'
S'solidarity'
tp4447
I1
s(S'ferguson'
g2305
tp4448
I1
s(g2455
g1015
tp4449
I1
s(S'michaelbrown'
S'nationalguard'
tp4450
I1
s(g2218
g3807
tp4451
I1
s(g566
g618
tp4452
I4
s(g2969
g814
tp4453
I1
s(S'news'
S'tyonews'
tp4454
I1
s(g2582
g1585
tp4455
I1
s(S'ferguson'
S'paidforcigars'
tp4456
I2
s(g923
g719
tp4457
I1
s(g3002
g1361
tp4458
I1
s(S'college'
g1831
tp4459
I1
s(g3648
g126
tp4460
I1
s(g1989
g1045
tp4461
I1
s(g2077
S'ferguson'
p4462
tp4463
I3
s(g1678
g931
tp4464
I1
s(S'ferguson'
S'shameful'
tp4465
I3
s(g1180
g3087
tp4466
I1
s(g266
g2621
tp4467
I2
s(g3099
g3091
tp4468
I1
s(g986
g796
tp4469
I1
s(g735
g1993
tp4470
I1
s(S'ferguson'
S'zimmerman'
tp4471
I2
s(g3726
g839
tp4472
I1
s(g688
g66
tp4473
I1
s(g2206
g1275
tp4474
I1
s(S'martiallaw'
S'thailand'
tp4475
I1
s(g3062
g112
tp4476
I1
s(S'ferguson'
g3996
tp4477
I1
s(g2119
g516
tp4478
I1
s(g1223
S'ferguson'
tp4479
I1
s(S'catholicstl'
S'ferguson'
tp4480
I2
s(S'ferguson'
S'sc'
tp4481
I1
s(g1700
g194
tp4482
I1
s(g971
g1423
tp4483
I1
s(g2152
g143
tp4484
I1
s(g2808
g1823
tp4485
I1
s(S'ferguson'
g2664
tp4486
I2
s(g3859
g1107
tp4487
I1
s(g651
g1931
tp4488
I1
s(g2364
g2643
tp4489
I1
s(S'chopchop'
S'ferguson'
tp4490
I1
s(g1845
g2140
tp4491
I1
s(g691
g2443
tp4492
I2
s(g2524
g3541
tp4493
I1
s(g402
g19
tp4494
I1
s(g3401
S'tcot'
tp4495
I1
s(g1850
S'tcot'
tp4496
I3
s(g761
g1381
tp4497
I2
s(g41
g2733
tp4498
I1
s(g4432
g4075
tp4499
I1
s(g2598
g2140
tp4500
I1
s(S'ferguson'
g1102
tp4501
I1
s(g653
g2327
tp4502
I1
s(g1358
g792
tp4503
I3
s(g3061
g112
tp4504
I1
s(S'ferguson'
g3634
tp4505
I4
s(g1686
g2440
tp4506
I1
s(g595
g2321
tp4507
I2
s(S'ferguson'
S'wsjaudio'
tp4508
I1
s(g1117
g1048
tp4509
I1
s(g484
g1587
tp4510
I1
s(S'ferguson'
g1291
tp4511
I5
s(g4028
g2371
tp4512
I1
s(S'ferguson'
g2036
tp4513
I1
s(g2487
g1878
tp4514
I1
s(S'ferguson'
S'justice4mikebrown'
tp4515
I3
s(g65
g344
tp4516
I1
s(g2705
g3305
tp4517
I3
s(S'darrenwilson'
g474
tp4518
I1
s(g1252
g161
tp4519
I2
s(g378
g661
tp4520
I1
s(S'ferguson'
g4249
tp4521
I4
s(g1248
g809
tp4522
I1
s(g622
g1190
tp4523
I1
s(g1524
g792
tp4524
I1
s(g658
g307
tp4525
I2
s(g461
g2072
tp4526
I1
s(S'ferguson'
S'montanatv'
tp4527
I3
s(g2772
g2654
tp4528
I1
s(S'bundyranch'
S'ferguson'
tp4529
I3
s(g2959
S'union'
p4530
tp4531
I1
s(S'college'
g2036
tp4532
I1
s(g481
g1866
tp4533
I1
s(g1451
g30
tp4534
I1
s(g111
g3062
tp4535
I1
s(g1327
g482
tp4536
I1
s(g82
g1253
tp4537
I2
s(S'tcot'
g4249
tp4538
I6
s(g719
g505
tp4539
I1
s(g3381
g861
tp4540
I1
s(g1991
g316
tp4541
I1
s(g1717
g156
tp4542
I1
s(g338
g288
tp4543
I1
s(g1026
g4276
tp4544
I1
s(S'ferguson'
S'policestate'
tp4545
I37
s(S'handsupdontshoot'
S'hangdarrenwilson'
tp4546
I1
s(g3061
g1598
tp4547
I1
s(S'mikebrown'
g3229
tp4548
I1
s(g545
g3517
tp4549
I1
s(g3990
g2692
tp4550
I1
s(g95
g539
tp4551
I1
s(g102
g485
tp4552
I2
s(g3233
g3401
tp4553
I1
s(g255
g518
tp4554
I1
s(g3687
g3513
tp4555
I1
s(g1219
g1713
tp4556
I1
s(g1048
g2239
tp4557
I1
s(g2647
S'opferguson'
tp4558
I1
s(g821
g3313
tp4559
I1
s(S'ferguson'
S'policebrutality'
tp4560
I11
s(g1234
g2199
tp4561
I1
s(S'ferguson'
S'supremacyisnteverything'
tp4562
I1
s(S'ferguson'
S'furgeson'
tp4563
I1
s(g782
g3493
tp4564
I2
s(g4286
g1632
tp4565
I1
s(g2062
g316
tp4566
I1
s(g591
g1007
tp4567
I4
s(g1263
S'ferguson'
tp4568
I2
s(g591
g2059
tp4569
I6
s(g638
g1000
tp4570
I1
s(S'1a'
S'ferguson'
tp4571
I1
s(S'libcrib'
S'uniteblue'
tp4572
I11
s(g681
g1456
tp4573
I1
s(g312
g373
tp4574
I1
s(g4175
g1644
tp4575
I1
s(g472
g74
tp4576
I1
s(g1523
g792
tp4577
I3
s(g1579
g2575
tp4578
I3
s(g1662
g883
tp4579
I1
s(g365
g786
tp4580
I1
s(g302
g958
tp4581
I5
s(S'ferguson'
S'mediabias'
tp4582
I4
s(S'rightnow'
S'tucsontoday'
tp4583
I1
s(g4074
S'mikebrown'
p4584
tp4585
I1
s(S'mikebrown'
g558
tp4586
I1
s(S'dontshoot'
S'stoptheviolence'
tp4587
I3
s(S'gaza'
g2436
tp4588
I2
s(g3
g1890
tp4589
I1
s(S'hiphopsummit'
S'related'
tp4590
I1
s(g65
g203
tp4591
I1
s(g489
S'ferguson'
tp4592
I1
s(g549
g352
tp4593
I1
s(g222
g1475
tp4594
I2
s(g2467
g236
tp4595
I1
s(g2621
g1009
tp4596
I2
s(g551
g977
tp4597
I1
s(S'ferguson'
S'np'
tp4598
I2
s(S'atlanta'
g1527
tp4599
I2
s(g1156
g2116
tp4600
I1
s(S'nationalguard'
g1787
tp4601
I1
s(g3126
g1529
tp4602
I1
s(g1441
g219
tp4603
I1
s(g96
g804
tp4604
I1
s(g1719
g163
tp4605
I1
s(S'mikebrown'
S'peace'
tp4606
I2
s(g865
g1312
tp4607
I1
s(g105
g2022
tp4608
I1
s(g697
g1275
tp4609
I1
s(g1580
g1021
tp4610
I17
s(g974
g1433
tp4611
I1
s(S'ferguson'
g1500
tp4612
I2
s(S'pjnet'
S'tcot'
tp4613
I19
s(g1836
g223
tp4614
I6
s(g322
g69
tp4615
I1
s(g966
g60
tp4616
I1
s(g1914
g3225
tp4617
I2
s(g3621
g1032
tp4618
I4
s(g211
S'ferguson'
tp4619
I1
s(S'echoes'
S'ferguson'
tp4620
I1
s(g4432
g4584
tp4621
I1
s(g4298
g2104
tp4622
I1
s(g1334
g870
tp4623
I1
s(g999
g1374
tp4624
I1
s(g1230
S'mom'
tp4625
I1
s(g1230
S'mikebrown'
tp4626
I1
s(g2502
g883
tp4627
I1
s(g98
g826
tp4628
I1
s(g2159
S'ripmikebrown'
tp4629
I1
s(S'nbcnews'
S'worldrssfeeds'
tp4630
I1
s(g735
g1248
tp4631
I1
s(g2034
S'trayvonmartin'
p4632
tp4633
I1
s(g4083
g2420
tp4634
I2
s(g1157
g197
tp4635
I1
s(g1213
g4411
tp4636
I3
s(g1775
g1050
tp4637
I2
s(g314
g78
tp4638
I1
s(g663
g364
tp4639
I1
s(S'gazaunderattack'
g759
tp4640
I1
s(g2176
g4632
tp4641
I1
s(g3844
g2410
tp4642
I1
s(g1820
g1241
tp4643
I16
s(g409
g45
tp4644
I2
s(g2930
g1513
tp4645
I1
s(S'ferguson'
S'kellythomas'
tp4646
I1
s(g1789
S'mikebrown'
tp4647
I1
s(S'ferguson'
S'justiceformichaelbrown'
tp4648
I1
s(g3684
g2861
tp4649
I1
s(g1184
g954
tp4650
I1
s(g1444
g1198
tp4651
I1
s(g3985
g3256
tp4652
I1
s(g667
g3179
tp4653
I1
s(g3416
S'mom'
tp4654
I1
s(g33
g52
tp4655
I1
s(g364
g930
tp4656
I1
s(g1489
S'mikebrown'
tp4657
I1
s(g3726
g2917
tp4658
I1
s(g502
g1113
tp4659
I1
s(S'ferguson'
S'politicalcraps'
tp4660
I1
s(g3289
g322
tp4661
I13
s(g687
g65
tp4662
I1
s(g3591
g2702
tp4663
I1
s(S'ferguson'
g2374
tp4664
I15
s(g4462
g632
tp4665
I4
s(g2449
g921
tp4666
I1
s(g2171
g2371
tp4667
I1
s(g4186
g4117
tp4668
I1
s(S'handsupdontshoot'
g2664
tp4669
I2
s(g1662
g2502
tp4670
I1
s(S'ferguson'
S'palestine'
tp4671
I39
s(g491
g349
tp4672
I4
s(g3423
S'mikebrown'
tp4673
I6
s(g3990
g3357
tp4674
I1
s(g2554
S'ferguson'
tp4675
I1
s(g1306
g256
tp4676
I1
s(S'ferguson'
g1632
tp4677
I1
s(g886
g3030
tp4678
I1
s(g2958
g4530
tp4679
I1
s(g4169
g380
tp4680
I1
s(g496
g651
tp4681
I1
s(g66
g2026
tp4682
I1
s(g4210
g1619
tp4683
I1
s(S'ferguson'
S'itsbiggerthanyo'
tp4684
I1
s(g259
S'ferguson'
tp4685
I1
s(S'ferguson'
S'judgedredd'
tp4686
I1
s(S'ferguson'
S'fraud'
tp4687
I1
s(g1399
g681
tp4688
I1
s(g3558
g2231
tp4689
I1
s(g3122
g3873
tp4690
I1
s(g502
g1999
tp4691
I2
s(g1109
g2212
tp4692
I1
s(S'breaking'
g1115
tp4693
I1
s(g1625
g1333
tp4694
I1
s(g663
g365
tp4695
I1
s(g2864
g1665
tp4696
I1
s(S'mikebrown'
S'wtf'
tp4697
I1
s(g1546
g723
tp4698
I1
s(g2502
g2062
tp4699
I1
s(g2777
g1938
tp4700
I2
s(S'ferguson'
S'stoptherhetoric'
tp4701
I1
s(g2210
g1311
tp4702
I1
s(g453
g761
tp4703
I2
s(g4038
g2759
tp4704
I1
s(g1991
g2440
tp4705
I1
s(g598
g766
tp4706
I1
s(g3698
g2684
tp4707
I1
s(g1534
g4312
tp4708
I1
s(g402
g133
tp4709
I1
s(g824
g2248
tp4710
I1
s(g1471
g2351
tp4711
I1
s(g585
g1248
tp4712
I1
s(g1082
g200
tp4713
I1
s(g735
g1247
tp4714
I1
s(g3064
g2040
tp4715
I1
s(g2951
g383
tp4716
I1
s(S'atlanta'
S'mikebrown'
tp4717
I4
s(g3080
g1142
tp4718
I2
s(g1478
g1843
tp4719
I1
s(S'missouri'
S'us'
tp4720
I1
s(g583
S'michaelbrown'
tp4721
I2
s(g2640
g2473
tp4722
I1
s(g3126
g1530
tp4723
I1
s(g3080
g1141
tp4724
I4
s(S'breaking'
S'mikebrown'
tp4725
I37
s(g1557
g678
tp4726
I3
s(g364
g1678
tp4727
I1
s(g1274
g2206
tp4728
I1
s(g3897
g2340
tp4729
I1
s(g1451
g1201
tp4730
I1
s(g4434
g3368
tp4731
I5
s(g3807
g2735
tp4732
I1
s(S'ferguson'
g1975
tp4733
I5
s(g372
g118
tp4734
I1
s(S'mikebrown'
g2192
tp4735
I2
s(S'christian'
S'news'
tp4736
I1
s(S'badcops'
S'ferguson'
tp4737
I1
s(g1145
g1200
tp4738
I1
stRp4739
.