(dp1
I0
S'['
sI1
S"'"
sI2
S'f'
sI3
S'e'
sI4
S'r'
sI5
S'g'
sI6
S'u'
sI7
S's'
sI8
S'o'
sI9
S'n'
sI10
S"'"
sI11
S']'
sI12
S'\n'
sI13
S'n'
sI14
S"'"
sI15
S','
sI16
S' '
sI17
S"'"
sI18
S'f'
sI19
S'e'
sI20
S'r'
sI21
S'g'
sI22
S'u'
sI23
S's'
sI24
S'o'
sI25
S'n'
sI26
S"'"
sI27
S']'
sI28
S'\n'
sI29
S"'"
sI30
S'f'
sI31
S'e'
sI32
S'r'
sI33
S'g'
sI34
S'u'
sI35
S's'
sI36
S'o'
sI37
S'n'
sI38
S"'"
sI39
S']'
sI40
S'\n'
sI41
S'k'
sI42
S'l'
sI43
S'i'
sI44
S'v'
sI45
S'e'
sI46
S's'
sI47
S'm'
sI48
S'a'
sI49
S't'
sI50
S't'
sI51
S'e'
sI52
S'r'
sI53
S"'"
sI54
S']'
sI55
S'\n'
sI56
S'\n'
sI57
S'o'
sI58
S'w'
sI59
S'n'
sI60
S"'"
sI61
S']'
sI62
S'\n'
sI63
S"'"
sI64
S']'
sI65
S'\n'
sI66
S'w'
sI67
S'n'
sI68
S"'"
sI69
S']'
sI70
S'\n'
sI71
S'n'
sI72
S"'"
sI73
S','
sI74
S' '
sI75
S"'"
sI76
S'f'
sI77
S'e'
sI78
S'r'
sI79
S'g'
sI80
S'u'
sI81
S's'
sI82
S'o'
sI83
S'n'
sI84
S"'"
sI85
S','
sI86
S' '
sI87
S"'"
sI88
S'n'
sI89
S'm'
sI90
S'o'
sI91
S's'
sI92
S'2'
sI93
S'0'
sI94
S'1'
sI95
S'4'
sI96
S"'"
sI97
S','
sI98
S' '
sI99
S"'"
sI100
S't'
sI101
S'r'
sI102
S'a'
sI103
S'y'
sI104
S'v'
sI105
S'o'
sI106
S'n'
sI107
S'm'
sI108
S'a'
sI109
S'r'
sI110
S't'
sI111
S'i'
sI112
S'n'
sI113
S"'"
sI114
S','
sI115
S' '
sI116
S"'"
sI117
S'j'
sI118
S'o'
sI119
S'n'
sI120
S'a'
sI121
S't'
sI122
S'h'
sI123
S'a'
sI124
S'n'
sI125
S'f'
sI126
S'e'
sI127
S'r'
sI128
S'r'
sI129
S'e'
sI130
S'l'
sI131
S'l'
sI132
S"'"
sI133
S']'
sI134
S'\n'
sI135
S's'
sI136
S'\n'
sI137
S'"'
sI138
S'['
sI139
S'u'
sI140
S"'"
sI141
S'('
sI142
S'B'
sI143
S'\n'
sI144
S'.'
sI145
S'0'
sI146
S','
sI147
S'"'
sI148
S'['
sI149
S'u'
sI150
S"'"
sI151
S'R'
sI152
S'a'
sI153
S'f'
sI154
S'i'
sI155
S'q'
sI156
S'_'
sI157
S'a'
sI158
S'l'
sI159
S'_'
sI160
S'T'
sI161
S'a'
sI162
S'n'
sI163
S'e'
sI164
S'e'
sI165
S'n'
sI166
S"'"
sI167
S','
sI168
S' '
sI169
S'u'
sI170
S"'"
sI171
S'M'
sI172
S'a'
sI173
S'y'
sI174
S'S'
sI175
S'h'
sI176
S'i'
sI177
S'g'
sI178
S'e'
sI179
S'n'
sI180
S'o'
sI181
S'b'
sI182
S'u'
sI183
S"'"
sI184
S']'
sI185
S'"'
sI186
S','
sI187
S'"'
sI188
S'['
sI189
S'u'
sI190
S"'"
sI191
S'\\'
sI192
S'u'
sI193
S'2'
sI194
S'6'
sI195
S'2'
sI196
S'd'
sI197
S' '
sI198
S'#'
sI199
S'\\'
sI200
S'u'
sI201
S'0'
sI202
S'4'
sI203
S'1'
sI204
S'f'
sI205
S'\\'
sI206
S'u'
sI207
S'0'
sI208
S'4'
sI209
S'4'
sI210
S'3'
sI211
S'\\'
sI212
S'u'
sI213
S'0'
sI214
S'4'
sI215
S'4'
sI216
S'2'
sI217
S'\\'
sI218
S'u'
sI219
S'0'
sI220
S'4'
sI221
S'3'
sI222
S'8'
sI223
S'\\'
sI224
S'u'
sI225
S'0'
sI226
S'4'
sI227
S'3'
sI228
S'd'
sI229
S'\\'
sI230
S'u'
sI231
S'0'
sI232
S'4'
sI233
S'1'
sI234
S'4'
sI235
S'\\'
sI236
S'u'
sI237
S'0'
sI238
S'4'
sI239
S'3'
sI240
S'0'
sI241
S'\\'
sI242
S'u'
sI243
S'0'
sI244
S'4'
sI245
S'3'
sI246
S'9'
sI247
S'\\'
sI248
S'u'
sI249
S'0'
sI250
S'4'
sI251
S'1'
sI252
S'f'
sI253
S'\\'
sI254
S'u'
sI255
S'0'
sI256
S'4'
sI257
S'4'
sI258
S'0'
sI259
S'\\'
sI260
S'u'
sI261
S'0'
sI262
S'4'
sI263
S'3'
sI264
S'8'
sI265
S'\\'
sI266
S'u'
sI267
S'0'
sI268
S'4'
sI269
S'3'
sI270
S'a'
sI271
S'\\'
sI272
S'u'
sI273
S'0'
sI274
S'4'
sI275
S'3'
sI276
S'0'
sI277
S'\\'
sI278
S'u'
sI279
S'0'
sI280
S'4'
sI281
S'3'
sI282
S'7'
sI283
S' '
sI284
S'\\'
sI285
S'u'
sI286
S'2'
sI287
S'6'
sI288
S'2'
sI289
S'd'
sI290
S"'"
sI291
S','
sI292
S' '
sI293
S'u'
sI294
S"'"
sI295
S'\\'
sI296
S'u'
sI297
S'9'
sI298
S'1'
sI299
S'c'
sI300
S'd'
sI301
S'\\'
sI302
S'u'
sI303
S'4'
sI304
S'f'
sI305
S'e'
sI306
S'1'
sI307
S'\\'
sI308
S'u'
sI309
S'3'
sI310
S'0'
sI311
S'e'
sI312
S'1'
sI313
S'\\'
sI314
S'u'
sI315
S'3'
sI316
S'0'
sI317
S'a'
sI318
S'4'
sI319
S' '
sI320
S'('
sI321
S'M'
sI322
S'a'
sI323
S'y'
sI324
S' '
sI325
S'S'
sI326
S'h'
sI327
S'i'
sI328
S'g'
sI329
S'e'
sI330
S'n'
sI331
S'o'
sI332
S'b'
sI333
S'u'
sI334
S'\n'
sI335
S'u'
sI336
S'0'
sI337
S'6'
sI338
S'2'
sI339
S'f'
sI340
S'\\'
sI341
S'\\'
sI342
S'u'
sI343
S'0'
sI344
S'6'
sI345
S'4'
sI346
S'8'
sI347
S'\\'
sI348
S'\\'
sI349
S'u'
sI350
S'0'
sI351
S'6'
sI352
S'4'
sI353
S'6'
sI354
S'_'
sI355
S'\\'
sI356
S'\\'
sI357
S'u'
sI358
S'0'
sI359
S'6'
sI360
S'3'
sI361
S'7'
sI362
S'\\'
sI363
S'\\'
sI364
S'u'
sI365
S'0'
sI366
S'6'
sI367
S'4'
sI368
S'1'
sI369
S'\\'
sI370
S'\\'
sI371
S'u'
sI372
S'0'
sI373
S'6'
sI374
S'3'
sI375
S'4'
sI376
S"'"
sI377
S','
sI378
S' '
sI379
S"'"
sI380
S'\\'
sI381
S'\\'
sI382
S'u'
sI383
S'0'
sI384
S'6'
sI385
S'2'
sI386
S'7'
sI387
S'\\'
sI388
S'\\'
sI389
S'u'
sI390
S'0'
sI391
S'6'
sI392
S'4'
sI393
S'1'
sI394
S'\\'
sI395
S'\\'
sI396
S'u'
sI397
S'0'
sI398
S'6'
sI399
S'2'
sI400
S'a'
sI401
S'\\'
sI402
S'\\'
sI403
S'u'
sI404
S'0'
sI405
S'6'
sI406
S'2'
sI407
S'a'
sI408
S'\\'
sI409
S'\\'
sI410
S'u'
sI411
S'0'
sI412
S'6'
sI413
S'2'
sI414
S'7'
sI415
S'\\'
sI416
S'\\'
sI417
S'u'
sI418
S'0'
sI419
S'6'
sI420
S'2'
sI421
S'd'
sI422
S'_'
sI423
S'\\'
sI424
S'\\'
sI425
S'u'
sI426
S'0'
sI427
S'6'
sI428
S'2'
sI429
S'f'
sI430
S'\\'
sI431
S'\\'
sI432
S'u'
sI433
S'0'
sI434
S'6'
sI435
S'4'
sI436
S'8'
sI437
S'\\'
sI438
S'\\'
sI439
S'u'
sI440
S'0'
sI441
S'6'
sI442
S'3'
sI443
S'1'
sI444
S'\\'
sI445
S'\\'
sI446
S'u'
sI447
S'0'
sI448
S'6'
sI449
S'4'
sI450
S'a'
sI451
S'_'
sI452
S'\\'
sI453
S'\\'
sI454
S'u'
sI455
S'0'
sI456
S'6'
sI457
S'3'
sI458
S'9'
sI459
S'\\'
sI460
S'\\'
sI461
S'u'
sI462
S'0'
sI463
S'6'
sI464
S'2'
sI465
S'8'
sI466
S'\\'
sI467
S'\\'
sI468
S'u'
sI469
S'0'
sI470
S'6'
sI471
S'2'
sI472
S'f'
sI473
S'\\'
sI474
S'\\'
sI475
S'u'
sI476
S'0'
sI477
S'6'
sI478
S'2'
sI479
S'7'
sI480
S'\\'
sI481
S'\\'
sI482
S'u'
sI483
S'0'
sI484
S'6'
sI485
S'4'
sI486
S'4'
sI487
S'\\'
sI488
S'\\'
sI489
S'u'
sI490
S'0'
sI491
S'6'
sI492
S'4'
sI493
S'4'
sI494
S'\\'
sI495
S'\\'
sI496
S'u'
sI497
S'0'
sI498
S'6'
sI499
S'3'
sI500
S'7'
sI501
S'\\'
sI502
S'\\'
sI503
S'u'
sI504
S'0'
sI505
S'6'
sI506
S'4'
sI507
S'a'
sI508
S'\\'
sI509
S'\\'
sI510
S'u'
sI511
S'0'
sI512
S'6'
sI513
S'4'
sI514
S'1'
sI515
S'_'
sI516
S'\\'
sI517
S'\\'
sI518
S'u'
sI519
S'0'
sI520
S'6'
sI521
S'2'
sI522
S'c'
sI523
S'\\'
sI524
S'\\'
sI525
S'u'
sI526
S'0'
sI527
S'6'
sI528
S'4'
sI529
S'5'
sI530
S'\\'
sI531
S'\\'
sI532
S'u'
sI533
S'0'
sI534
S'6'
sI535
S'4'
sI536
S'a'
sI537
S'\\'
sI538
S'\\'
sI539
S'u'
sI540
S'0'
sI541
S'6'
sI542
S'4'
sI543
S'4'
sI544
S"'"
sI545
S','
sI546
S' '
sI547
S"'"
sI548
S'f'
sI549
S'e'
sI550
S'r'
sI551
S'g'
sI552
S'u'
sI553
S's'
sI554
S'o'
sI555
S'n'
sI556
S"'"
sI557
S']'
sI558
S'\n'
sI559
S'u'
sI560
S'0'
sI561
S'6'
sI562
S'3'
sI563
S'1'
sI564
S"'"
sI565
S']'
sI566
S'\n'
sI567
S'7'
sI568
S'\\'
sI569
S'\\'
sI570
S'u'
sI571
S'0'
sI572
S'6'
sI573
S'2'
sI574
S'a'
sI575
S"'"
sI576
S','
sI577
S' '
sI578
S"'"
sI579
S'\\'
sI580
S'\\'
sI581
S'u'
sI582
S'0'
sI583
S'6'
sI584
S'4'
sI585
S'1'
sI586
S'\\'
sI587
S'\\'
sI588
S'u'
sI589
S'0'
sI590
S'6'
sI591
S'3'
sI592
S'1'
sI593
S'\\'
sI594
S'\\'
sI595
S'u'
sI596
S'0'
sI597
S'6'
sI598
S'4'
sI599
S'6'
sI600
S'\\'
sI601
S'\\'
sI602
S'u'
sI603
S'0'
sI604
S'6'
sI605
S'3'
sI606
S'3'
sI607
S'\\'
sI608
S'\\'
sI609
S'u'
sI610
S'0'
sI611
S'6'
sI612
S'2'
sI613
S'7'
sI614
S"'"
sI615
S','
sI616
S' '
sI617
S"'"
sI618
S'f'
sI619
S'e'
sI620
S'r'
sI621
S'g'
sI622
S'u'
sI623
S's'
sI624
S'o'
sI625
S'n'
sI626
S"'"
sI627
S']'
sI628
S'\n'
sI629
S'\\'
sI630
S'u'
sI631
S'0'
sI632
S'6'
sI633
S'2'
sI634
S'd'
sI635
S'\\'
sI636
S'\\'
sI637
S'u'
sI638
S'0'
sI639
S'6'
sI640
S'2'
sI641
S'7'
sI642
S'\\'
sI643
S'\\'
sI644
S'u'
sI645
S'0'
sI646
S'6'
sI647
S'2'
sI648
S'f'
sI649
S'_'
sI650
S'\\'
sI651
S'\\'
sI652
S'u'
sI653
S'0'
sI654
S'6'
sI655
S'2'
sI656
S'7'
sI657
S'\\'
sI658
S'\\'
sI659
S'u'
sI660
S'0'
sI661
S'6'
sI662
S'4'
sI663
S'4'
sI664
S'\\'
sI665
S'\\'
sI666
S'u'
sI667
S'0'
sI668
S'6'
sI669
S'3'
sI670
S'9'
sI671
S'\\'
sI672
S'\\'
sI673
S'u'
sI674
S'0'
sI675
S'6'
sI676
S'4'
sI677
S'a'
sI678
S'\\'
sI679
S'\\'
sI680
S'u'
sI681
S'0'
sI682
S'6'
sI683
S'4'
sI684
S'6'
sI685
S"'"
sI686
S']'
sI687
S'\n'
s.