(dp1
S'\x83'
I109
sS'\x87'
I48
sS'\x8b'
I39
sS'\x8f'
I33
sS'\x93'
I30
sS'\x97'
I54
sS'\x9b'
I37
sS'\x9f'
I107
sS' '
I16
sS'\xa3'
I74
sS'$'
I43
sS'\xa7'
I34
sS'('
I59
sS'\xab'
I123
sS','
I15
sS'\xaf'
I50
sS'0'
I7
sS'\xb3'
I42
sS'4'
I9
sS'\xb7'
I133
sS'8'
I19
sS'\xbb'
I33
sS'\xbf'
I58
sS'@'
I137
sS'\xc3'
I26
sS'D'
I59
sS'H'
I47
sS'\xcb'
I38
sS'L'
I18
sS'\xcf'
I26
sS'P'
I36
sS'T'
I25
sS'\xd7'
I78
sS'X'
I23
sS'\\'
I11
sS'`'
I25
sS'\xe3'
I23
sS'd'
I12
sS'\xe7'
I56
sS'h'
I5
sS'\xeb'
I30
sS'l'
I8
sS'\xef'
I36
sS'p'
I11
sS't'
I5
sS'x'
I16
sS'|'
I18
sS'\x80'
I125
sS'\x84'
I24
sS'\x88'
I37
sS'\x8c'
I36
sS'\x90'
I41
sS'\x94'
I117
sS'\x98'
I102
sS'\x9c'
I42
sS'\xa0'
I34
sS'#'
I105
sS'\xa4'
I36
sS"'"
I1
sS'\xa8'
I31
sS'+'
I55
sS'\xac'
I23
sS'/'
I32
sS'\xb0'
I119
sS'3'
I4
sS'\xb4'
I19
sS'7'
I60
sS'\xb8'
I113
sS';'
I47
sS'\xbc'
I50
sS'?'
I19
sS'C'
I46
sS'\xc4'
I49
sS'G'
I64
sS'K'
I16
sS'\xcc'
I34
sS'O'
I49
sS'\xd0'
I106
sS'S'
I28
sS'W'
I67
sS'\xd8'
I122
sS'['
I0
sS'_'
I21
sS'\xe0'
I50
sS'c'
I4
sS'\xe4'
I41
sS'g'
I5
sS'\xe8'
I32
sS'k'
I14
sS'\xec'
I27
sS'o'
I8
sS's'
I7
sS'w'
I12
sS'{'
I26
sS'\x81'
I41
sS'\x85'
I30
sS'\x89'
I52
sS'\n'
I12
sS'\x8d'
I88
sS'\x91'
I58
sS'\x95'
I71
sS'\x99'
I47
sS'\x9d'
I35
sS'\xa1'
I37
sS'"'
I35
sS'\xa5'
I50
sS'&'
I44
sS'\xa9'
I27
sS'*'
I26
sS'\xad'
I103
sS'.'
I74
sS'\xb1'
I125
sS'2'
I6
sS'\xb5'
I41
sS'6'
I5
sS'\xb9'
I121
sS':'
I66
sS'\xbd'
I115
sS'B'
I46
sS'\xc5'
I52
sS'F'
I91
sS'\xc9'
I84
sS'J'
I39
sS'\xcd'
I36
sS'N'
I23
sS'\xd1'
I108
sS'R'
I70
sS'\xd5'
I46
sS'V'
I58
sS'\xd9'
I120
sS'Z'
I14
sS'^'
I30
sS'\xe1'
I30
sS'b'
I9
sS'\xe5'
I26
sS'f'
I2
sS'\xe9'
I29
sS'j'
I12
sS'\xed'
I40
sS'n'
I9
sS'r'
I4
sS'v'
I44
sS'z'
I16
sS'~'
I34
sS'\x82'
I111
sS'\x86'
I121
sS'\x8a'
I32
sS'\x8e'
I82
sS'\x92'
I25
sS'\x96'
I44
sS'\x9a'
I38
sS'\x9e'
I29
sS'!'
I56
sS'\xa2'
I45
sS'%'
I116
sS'\xa6'
I45
sS')'
I34
sS'\xaa'
I90
sS'-'
I34
sS'\xae'
I31
sS'1'
I8
sS'\xb2'
I50
sS'5'
I61
sS'\xb6'
I38
sS'9'
I55
sS'\xba'
I129
sS'='
I19
sS'\xbe'
I48
sS'A'
I30
sS'\xc2'
I38
sS'E'
I17
sS'\xc6'
I35
sS'I'
I119
sS'\xca'
I43
sS'M'
I62
sS'\xce'
I29
sS'Q'
I129
sS'U'
I52
sS'\xd6'
I29
sS'Y'
I53
sS']'
I11
sS'a'
I6
sS'\xe2'
I101
sS'e'
I3
sS'\xe6'
I27
sS'i'
I3
sS'\xea'
I37
sS'm'
I2
sS'\xee'
I80
sS'q'
I38
sS'u'
I6
sS'y'
I6
sS'}'
I27
s.